Archive member included to satisfy reference by file (symbol)

arch/arm/lib/lib.a(ashldi3.o)
                              drivers/built-in.o (__aeabi_llsl)
arch/arm/lib/lib.a(lib1funcs.o)
                              arch/arm/cpu/arm926ejs/built-in.o (__aeabi_uidiv)
arch/arm/lib/lib.a(lshrdi3.o)
                              fs/built-in.o (__aeabi_llsr)
arch/arm/lib/lib.a(muldi3.o)  common/built-in.o (__aeabi_lmul)
arch/arm/lib/lib.a(div0.o)    arch/arm/lib/lib.a(lib1funcs.o) (__div0)

Discarded input sections

 .data          0x0000000000000000        0x0 arch/arm/cpu/arm926ejs/start.o
 .bss           0x0000000000000000        0x0 arch/arm/cpu/arm926ejs/start.o
 .text          0x0000000000000000        0x0 arch/arm/cpu/arm926ejs/built-in.o
 .text.invalidate_dcache_all
                0x0000000000000000        0xc arch/arm/cpu/arm926ejs/built-in.o
 .text.invalidate_dcache_range
                0x0000000000000000       0x2c arch/arm/cpu/arm926ejs/built-in.o
 .text.invalidate_l2_cache
                0x0000000000000000        0x4 arch/arm/cpu/arm926ejs/built-in.o
 .text.s_init   0x0000000000000000        0x4 arch/arm/cpu/arm926ejs/built-in.o
 .data          0x0000000000000000        0x0 arch/arm/cpu/arm926ejs/built-in.o
 .bss           0x0000000000000000        0x0 arch/arm/cpu/arm926ejs/built-in.o
 .text.armv7_boot_nonsec_default
                0x0000000000000000        0x4 arch/arm/lib/built-in.o
 .text.enable_caches
                0x0000000000000000        0xc arch/arm/lib/built-in.o
 .text.invalidate_dcache_range
                0x0000000000000000        0x4 arch/arm/lib/built-in.o
 .text.flush_dcache_range
                0x0000000000000000        0x4 arch/arm/lib/built-in.o
 .text.flush_dcache_all
                0x0000000000000000        0xc arch/arm/lib/built-in.o
 .text.invalidate_l2_cache
                0x0000000000000000        0xc arch/arm/lib/built-in.o
 .text.mmu_page_table_flush
                0x0000000000000000        0x4 arch/arm/lib/built-in.o
 .text.mmu_set_region_dcache_behaviour
                0x0000000000000000       0x58 arch/arm/lib/built-in.o
 .text.icache_enable
                0x0000000000000000       0x10 arch/arm/lib/built-in.o
 .text.icache_status
                0x0000000000000000       0x10 arch/arm/lib/built-in.o
 .text.fdt_psci
                0x0000000000000000        0x4 arch/arm/lib/built-in.o
 .rodata.enable_caches.str1.1
                0x0000000000000000       0x1d arch/arm/lib/built-in.o
 .data          0x0000000000000000        0x0 arch/arm/lib/built-in.o
 .__secure_end  0x0000000000000000        0x0 arch/arm/lib/built-in.o
 .__secure_stack_end
                0x0000000000000000        0x0 arch/arm/lib/built-in.o
 .__secure_stack_start
                0x0000000000000000        0x0 arch/arm/lib/built-in.o
 .__secure_start
                0x0000000000000000        0x0 arch/arm/lib/built-in.o
 .bss           0x0000000000000000        0x0 arch/arm/lib/built-in.o
 .text          0x0000000000000000        0x0 arch/arm/mach-sunxi/built-in.o
 .text.gtbus_init
                0x0000000000000000        0x2 arch/arm/mach-sunxi/built-in.o
 .text.mctl_await_completion
                0x0000000000000000       0x30 arch/arm/mach-sunxi/built-in.o
 .text.sunxi_gpio_get_cfgpin
                0x0000000000000000       0x28 arch/arm/mach-sunxi/built-in.o
 .text.usb_phy_write.isra.0
                0x0000000000000000       0x64 arch/arm/mach-sunxi/built-in.o
 .text.sunxi_usb_phy_enable_squelch_detect
                0x0000000000000000       0x24 arch/arm/mach-sunxi/built-in.o
 .text.sunxi_usb_phy_init
                0x0000000000000000       0x70 arch/arm/mach-sunxi/built-in.o
 .text.sunxi_usb_phy_exit
                0x0000000000000000       0x40 arch/arm/mach-sunxi/built-in.o
 .text.sunxi_usb_phy_power_on
                0x0000000000000000       0x4c arch/arm/mach-sunxi/built-in.o
 .text.sunxi_usb_phy_power_off
                0x0000000000000000       0x28 arch/arm/mach-sunxi/built-in.o
 .text.sunxi_usb_phy_vbus_detect
                0x0000000000000000       0x48 arch/arm/mach-sunxi/built-in.o
 .text.sunxi_usb_phy_id_detect
                0x0000000000000000       0x20 arch/arm/mach-sunxi/built-in.o
 .text.sunxi_usb_phy_remove
                0x0000000000000000       0x3c arch/arm/mach-sunxi/built-in.o
 .text.clock_set_pll3
                0x0000000000000000       0x38 arch/arm/mach-sunxi/built-in.o
 .text.clock_set_pll5
                0x0000000000000000       0x9c arch/arm/mach-sunxi/built-in.o
 .text.clock_get_pll3
                0x0000000000000000       0x30 arch/arm/mach-sunxi/built-in.o
 .text.clock_get_mipi_pll
                0x0000000000000000       0x44 arch/arm/mach-sunxi/built-in.o
 .text.clock_set_de_mod_clock
                0x0000000000000000       0x2e arch/arm/mach-sunxi/built-in.o
 .rodata.mctl_await_completion.str1.1
                0x0000000000000000       0x1b arch/arm/mach-sunxi/built-in.o
 .data          0x0000000000000000       0x18 arch/arm/mach-sunxi/built-in.o
 .bss           0x0000000000000000        0x0 arch/arm/mach-sunxi/built-in.o
 .bss.initial_usb_scan_delay
                0x0000000000000000        0x4 arch/arm/mach-sunxi/built-in.o
 .text          0x0000000000000000        0x0 board/sunxi/built-in.o
 .text.g_dnl_board_usb_cable_connected
                0x0000000000000000       0x10 board/sunxi/built-in.o
 .data          0x0000000000000000        0x0 board/sunxi/built-in.o
 .bss           0x0000000000000000        0x0 board/sunxi/built-in.o
 .text          0x0000000000000000        0x0 cmd/built-in.o
 .text.bootz_setup
                0x0000000000000000       0x14 cmd/built-in.o
 .text.sunxi_name_to_gpio
                0x0000000000000000       0x12 cmd/built-in.o
 .rodata.bootz_setup.str1.1
                0x0000000000000000       0x34 cmd/built-in.o
 .data          0x0000000000000000        0x0 cmd/built-in.o
 .bss           0x0000000000000000        0x0 cmd/built-in.o
 .text          0x0000000000000000        0x0 common/built-in.o
 .text.unset_local_var
                0x0000000000000000       0x64 common/built-in.o
 .text.red_led_off
                0x0000000000000000        0x2 common/built-in.o
 .text.green_led_on
                0x0000000000000000        0x2 common/built-in.o
 .text.green_led_off
                0x0000000000000000        0x2 common/built-in.o
 .text.yellow_led_on
                0x0000000000000000        0x2 common/built-in.o
 .text.yellow_led_off
                0x0000000000000000        0x2 common/built-in.o
 .text.blue_led_on
                0x0000000000000000        0x2 common/built-in.o
 .text.blue_led_off
                0x0000000000000000        0x2 common/built-in.o
 .text.arch_reserve_stacks
                0x0000000000000000        0x4 common/built-in.o
 .text.board_flash_wp_on
                0x0000000000000000        0x4 common/built-in.o
 .text.fixup_cpu
                0x0000000000000000        0x4 common/built-in.o
 .text.fdt_read_prop
                0x0000000000000000       0x76 common/built-in.o
 .text.fdt_getprop_u32_default
                0x0000000000000000       0x22 common/built-in.o
 .text.do_fixup_by_path_u32
                0x0000000000000000       0x2e common/built-in.o
 .text.do_fixup_by_prop
                0x0000000000000000       0x58 common/built-in.o
 .text.do_fixup_by_prop_u32
                0x0000000000000000       0x3a common/built-in.o
 .text.do_fixup_by_compat
                0x0000000000000000       0x50 common/built-in.o
 .text.do_fixup_by_compat_u32
                0x0000000000000000       0x2e common/built-in.o
 .text.fdt_record_loadable
                0x0000000000000000      0x130 common/built-in.o
 .text.fdt_increase_size
                0x0000000000000000       0x28 common/built-in.o
 .text.fdt_del_node_and_alias
                0x0000000000000000       0x2c common/built-in.o
 .text.fdt_node_offset_by_compat_reg
                0x0000000000000000       0x4c common/built-in.o
 .text.fdt_alloc_phandle
                0x0000000000000000       0x36 common/built-in.o
 .text.fdt_set_phandle
                0x0000000000000000       0x54 common/built-in.o
 .text.fdt_create_phandle
                0x0000000000000000       0x40 common/built-in.o
 .text.fdt_set_node_status
                0x0000000000000000       0x84 common/built-in.o
 .text.fdt_set_status_by_alias
                0x0000000000000000       0x1a common/built-in.o
 .text.fdt_verify_alias_address
                0x0000000000000000       0x8c common/built-in.o
 .text.fdt_get_base_address
                0x0000000000000000       0x28 common/built-in.o
 .text.fdt_read_range
                0x0000000000000000       0xd0 common/built-in.o
 .text.fdt_setup_simplefb_node
                0x0000000000000000      0x1dc common/built-in.o
 .text.fdt_fixup_display
                0x0000000000000000       0x9c common/built-in.o
 .text.mdio_alloc
                0x0000000000000000       0x24 common/built-in.o
 .text.mdio_free
                0x0000000000000000        0xe common/built-in.o
 .text.mdio_register
                0x0000000000000000       0x5c common/built-in.o
 .text.mdio_register_seq
                0x0000000000000000       0x28 common/built-in.o
 .text.mdio_unregister
                0x0000000000000000       0x24 common/built-in.o
 .text.mdio_list_devices
                0x0000000000000000       0x6c common/built-in.o
 .text.mdio_get_current_dev
                0x0000000000000000        0xc common/built-in.o
 .text.mdio_phydev_for_ethname
                0x0000000000000000       0x58 common/built-in.o
 .text.miiphy_reset
                0x0000000000000000       0x7c common/built-in.o
 .text.usb_get_report
                0x0000000000000000       0x4c common/built-in.o
 .text.usb_get_class_descriptor
                0x0000000000000000       0x4c common/built-in.o
 .text.board_usb_init
                0x0000000000000000        0x4 common/built-in.o
 .text.board_usb_cleanup
                0x0000000000000000        0x4 common/built-in.o
 .text.usb_find_usb2_hub_address_port
                0x0000000000000000       0x5c common/built-in.o
 .text.usb_hub_probe
                0x0000000000000000       0x60 common/built-in.o
 .text.splash_screen_prepare
                0x0000000000000000        0x4 common/built-in.o
 .text.menu_default_choice
                0x0000000000000000       0x14 common/built-in.o
 .text.overwrite_console
                0x0000000000000000        0x4 common/built-in.o
 .text.cli_simple_parse_line
                0x0000000000000000       0x58 common/built-in.o
 .text.cli_simple_run_command
                0x0000000000000000       0xe0 common/built-in.o
 .text.cli_simple_loop
                0x0000000000000000       0x54 common/built-in.o
 .text.cli_simple_run_command_list
                0x0000000000000000       0x3c common/built-in.o
 .text.serial_printf
                0x0000000000000000       0x40 common/built-in.o
 .text.fprintf  0x0000000000000000       0x44 common/built-in.o
 .text.confirm_yesno
                0x0000000000000000       0x90 common/built-in.o
 .text.console_announce_r
                0x0000000000000000        0x4 common/built-in.o
 .text.valloc   0x0000000000000000       0x14 common/built-in.o
 .text.pvalloc  0x0000000000000000       0x20 common/built-in.o
 .text.cfree    0x0000000000000000        0xe common/built-in.o
 .text.malloc_usable_size
                0x0000000000000000       0x34 common/built-in.o
 .text.mallopt  0x0000000000000000       0x30 common/built-in.o
 .text.memalign_simple
                0x0000000000000000       0x3e common/built-in.o
 .text.genimg_get_short_name
                0x0000000000000000       0x1c common/built-in.o
 .text.genimg_get_cat_name
                0x0000000000000000       0x48 common/built-in.o
 .text.genimg_get_cat_short_name
                0x0000000000000000       0x48 common/built-in.o
 .text.genimg_get_cat_count
                0x0000000000000000       0x14 common/built-in.o
 .text.genimg_get_cat_desc
                0x0000000000000000       0x14 common/built-in.o
 .text.genimg_get_type_short_name
                0x0000000000000000       0x18 common/built-in.o
 .text.genimg_get_comp_short_name
                0x0000000000000000       0x18 common/built-in.o
 .text.genimg_get_os_short_name
                0x0000000000000000       0x18 common/built-in.o
 .text.genimg_get_arch_short_name
                0x0000000000000000       0x18 common/built-in.o
 .text.get_table_entry_id
                0x0000000000000000       0x32 common/built-in.o
 .text.genimg_get_os_id
                0x0000000000000000       0x1c common/built-in.o
 .text.genimg_get_arch_id
                0x0000000000000000       0x1c common/built-in.o
 .text.genimg_get_type_id
                0x0000000000000000       0x1c common/built-in.o
 .text.genimg_get_comp_id
                0x0000000000000000       0x1c common/built-in.o
 .text.stdio_deregister
                0x0000000000000000       0x22 common/built-in.o
 .text.stdio_init
                0x0000000000000000       0x14 common/built-in.o
 .text.run_command_repeatable
                0x0000000000000000       0x16 common/built-in.o
 .rodata.__func__.8832
                0x0000000000000000       0x14 common/built-in.o
 .rodata.fdt_create_phandle.str1.1
                0x0000000000000000       0x1a common/built-in.o
 .rodata.fdt_fixup_display.str1.1
                0x0000000000000000       0x1c common/built-in.o
 .rodata.fdt_read_range.str1.1
                0x0000000000000000        0xf common/built-in.o
 .rodata.fdt_set_node_status.str1.1
                0x0000000000000000       0x3a common/built-in.o
 .rodata.fdt_set_phandle.str1.1
                0x0000000000000000       0x16 common/built-in.o
 .rodata.fdt_setup_simplefb_node.str1.1
                0x0000000000000000       0x2c common/built-in.o
 .rodata.fdt_verify_alias_address.str1.1
                0x0000000000000000       0xcd common/built-in.o
 .rodata.mdio_phydev_for_ethname.str1.1
                0x0000000000000000       0x1c common/built-in.o
 .rodata.mdio_register.str1.1
                0x0000000000000000       0x2c common/built-in.o
 .rodata.mdio_register_seq.str1.1
                0x0000000000000000        0x6 common/built-in.o
 .rodata.miiphy_reset.str1.1
                0x0000000000000000       0x15 common/built-in.o
 .rodata.usb_find_usb2_hub_address_port.str1.1
                0x0000000000000000       0x36 common/built-in.o
 .rodata.cli_simple_loop.str1.1
                0x0000000000000000       0x11 common/built-in.o
 .rodata.cli_simple_parse_line.str1.1
                0x0000000000000000       0x1f common/built-in.o
 .rodata.cli_simple_run_command.str1.1
                0x0000000000000000       0x16 common/built-in.o
 .rodata.confirm_yesno.str1.1
                0x0000000000000000       0x10 common/built-in.o
 .rodata.genimg_get_arch_id.str1.1
                0x0000000000000000        0x4 common/built-in.o
 .rodata.genimg_get_comp_id.str1.1
                0x0000000000000000        0xc common/built-in.o
 .rodata.genimg_get_os_id.str1.1
                0x0000000000000000        0x3 common/built-in.o
 .rodata.genimg_get_short_name.str1.1
                0x0000000000000000        0x8 common/built-in.o
 .rodata.genimg_get_type_id.str1.1
                0x0000000000000000        0x6 common/built-in.o
 .rodata.table_info
                0x0000000000000000       0x30 common/built-in.o
 .rodata.unknown_str.8751
                0x0000000000000000        0x9 common/built-in.o
 .data          0x0000000000000000        0x0 common/built-in.o
 .bss           0x0000000000000000        0x0 common/built-in.o
 .bss.lastcommand.7192
                0x0000000000000000      0x401 common/built-in.o
 .bss.msg.8752  0x0000000000000000       0x1e common/built-in.o
 .bss.save_addr
                0x0000000000000000        0x4 common/built-in.o
 .bss.save_size
                0x0000000000000000        0x4 common/built-in.o
 .text          0x0000000000000000        0x0 disk/built-in.o
 .text.part_get_info_by_name_type
                0x0000000000000000       0x60 disk/built-in.o
 .text.part_get_info_by_name
                0x0000000000000000       0x12 disk/built-in.o
 .text.is_valid_dos_buf
                0x0000000000000000        0xe disk/built-in.o
 .text.write_mbr_partition
                0x0000000000000000       0x44 disk/built-in.o
 .text.is_valid_gpt_buf
                0x0000000000000000       0x5c disk/built-in.o
 .text.write_mbr_and_gpt_partitions
                0x0000000000000000      0x338 disk/built-in.o
 .rodata.__func__.7212
                0x0000000000000000       0x14 disk/built-in.o
 .rodata.write_mbr_partition.str1.1
                0x0000000000000000       0x2d disk/built-in.o
 .rodata.__func__.8575
                0x0000000000000000       0x1d disk/built-in.o
 .rodata.write_mbr_and_gpt_partitions.str1.1
                0x0000000000000000       0x7c disk/built-in.o
 .data          0x0000000000000000        0x0 disk/built-in.o
 .bss           0x0000000000000000        0x0 disk/built-in.o
 .text          0x0000000000000000        0x0 drivers/built-in.o
 .text._device_find_global_by_of_offset
                0x0000000000000000       0x38 drivers/built-in.o
 .text.device_find_child_by_seq
                0x0000000000000000       0x3a drivers/built-in.o
 .text.device_get_child_by_seq
                0x0000000000000000       0x44 drivers/built-in.o
 .text.device_find_child_by_of_offset
                0x0000000000000000       0x2e drivers/built-in.o
 .text.device_get_child_by_of_offset
                0x0000000000000000       0x2e drivers/built-in.o
 .text.device_get_global_by_of_offset
                0x0000000000000000       0x2e drivers/built-in.o
 .text.dev_get_parent
                0x0000000000000000        0x4 drivers/built-in.o
 .text.dev_get_driver_ops
                0x0000000000000000        0xa drivers/built-in.o
 .text.dev_get_uclass_name
                0x0000000000000000        0xc drivers/built-in.o
 .text.device_has_children
                0x0000000000000000        0xe drivers/built-in.o
 .text.device_set_name_alloced
                0x0000000000000000        0xa drivers/built-in.o
 .text.device_set_name
                0x0000000000000000       0x2a drivers/built-in.o
 .text.device_is_compatible
                0x0000000000000000       0x1a drivers/built-in.o
 .text.of_machine_is_compatible
                0x0000000000000000       0x18 drivers/built-in.o
 .text.devfdt_get_addr_size_index
                0x0000000000000000       0x34 drivers/built-in.o
 .text.devfdt_get_addr_name
                0x0000000000000000       0x2c drivers/built-in.o
 .text.devfdt_get_addr_ptr
                0x0000000000000000       0x10 drivers/built-in.o
 .text.devfdt_map_physmem
                0x0000000000000000       0x14 drivers/built-in.o
 .text.dm_fixup_for_gd_move
                0x0000000000000000       0x1c drivers/built-in.o
 .text.dm_set_translation_offset
                0x0000000000000000       0x18 drivers/built-in.o
 .text.dm_uninit
                0x0000000000000000       0x1e drivers/built-in.o
 .text.uclass_destroy
                0x0000000000000000       0x60 drivers/built-in.o
 .text.uclass_get_name
                0x0000000000000000       0x22 drivers/built-in.o
 .text.uclass_find_device_by_name
                0x0000000000000000       0x5e drivers/built-in.o
 .text.uclass_get_device_by_driver
                0x0000000000000000       0x4e drivers/built-in.o
 .text.uclass_get_device_by_name
                0x0000000000000000       0x26 drivers/built-in.o
 .text.uclass_get_device_by_phandle
                0x0000000000000000       0x72 drivers/built-in.o
 .text.uclass_first_device_err
                0x0000000000000000       0x1e drivers/built-in.o
 .text.uclass_first_device_check
                0x0000000000000000       0x26 drivers/built-in.o
 .text.uclass_next_device_check
                0x0000000000000000       0x22 drivers/built-in.o
 .text.list_count_items
                0x0000000000000000       0x14 drivers/built-in.o
 .text.simple_bus_translate
                0x0000000000000000       0x28 drivers/built-in.o
 .text.of_read_fmap_entry
                0x0000000000000000       0x88 drivers/built-in.o
 .text.ofnode_read_s32_default
                0x0000000000000000       0x18 drivers/built-in.o
 .text.ofnode_read_string
                0x0000000000000000       0x3c drivers/built-in.o
 .text.ofnode_find_subnode
                0x0000000000000000       0x16 drivers/built-in.o
 .text.ofnode_first_subnode
                0x0000000000000000       0x12 drivers/built-in.o
 .text.ofnode_next_subnode
                0x0000000000000000       0x12 drivers/built-in.o
 .text.ofnode_read_size
                0x0000000000000000       0x2c drivers/built-in.o
 .text.decode_timing_property
                0x0000000000000000       0x48 drivers/built-in.o
 .text.ofnode_get_addr_index
                0x0000000000000000       0x12 drivers/built-in.o
 .text.ofnode_get_addr
                0x0000000000000000       0x10 drivers/built-in.o
 .text.ofnode_stringlist_search
                0x0000000000000000       0x2c drivers/built-in.o
 .text.ofnode_read_string_index
                0x0000000000000000       0x30 drivers/built-in.o
 .text.ofnode_read_string_count
                0x0000000000000000       0x16 drivers/built-in.o
 .text.ofnode_count_phandle_with_args
                0x0000000000000000       0x2c drivers/built-in.o
 .text.ofnode_get_chosen_prop
                0x0000000000000000       0x20 drivers/built-in.o
 .text.ofnode_get_chosen_node
                0x0000000000000000       0x1a drivers/built-in.o
 .text.ofnode_decode_display_timing
                0x0000000000000000      0x1dc drivers/built-in.o
 .text.ofnode_is_available
                0x0000000000000000       0x16 drivers/built-in.o
 .text.ofnode_get_addr_size
                0x0000000000000000       0x1c drivers/built-in.o
 .text.ofnode_read_u8_array_ptr
                0x0000000000000000       0x1c drivers/built-in.o
 .text.ofnode_read_pci_addr
                0x0000000000000000       0xac drivers/built-in.o
 .text.ofnode_read_addr_cells
                0x0000000000000000       0x12 drivers/built-in.o
 .text.ofnode_read_size_cells
                0x0000000000000000       0x12 drivers/built-in.o
 .text.ofnode_read_simple_addr_cells
                0x0000000000000000        0xe drivers/built-in.o
 .text.ofnode_read_simple_size_cells
                0x0000000000000000        0xe drivers/built-in.o
 .text.ofnode_pre_reloc
                0x0000000000000000       0x3c drivers/built-in.o
 .text.ofnode_read_resource
                0x0000000000000000       0x48 drivers/built-in.o
 .text.ofnode_read_resource_byname
                0x0000000000000000       0x2c drivers/built-in.o
 .text.board_mmc_init
                0x0000000000000000        0x6 drivers/built-in.o
 .text.mmc_set_preinit
                0x0000000000000000        0x8 drivers/built-in.o
 .text.mmc_destroy
                0x0000000000000000        0x8 drivers/built-in.o
 .text._input_send_keycodes
                0x0000000000000000      0x2f8 drivers/built-in.o
 .text.input_send_keycodes
                0x0000000000000000       0x10 drivers/built-in.o
 .text.input_add_keycode
                0x0000000000000000       0x58 drivers/built-in.o
 .text.input_add_table
                0x0000000000000000       0x26 drivers/built-in.o
 .text.input_set_delays
                0x0000000000000000        0xc drivers/built-in.o
 .text.input_allow_repeats
                0x0000000000000000        0x6 drivers/built-in.o
 .text.input_leds_changed
                0x0000000000000000       0x10 drivers/built-in.o
 .text.input_add_tables
                0x0000000000000000       0x50 drivers/built-in.o
 .text.input_stdio_register
                0x0000000000000000       0x3c drivers/built-in.o
 .text.create_keymap
                0x0000000000000000       0x84 drivers/built-in.o
 .text.key_matrix_decode
                0x0000000000000000       0xa0 drivers/built-in.o
 .text.key_matrix_decode_fdt
                0x0000000000000000       0x74 drivers/built-in.o
 .text.key_matrix_init
                0x0000000000000000       0x28 drivers/built-in.o
 .rodata.devfdt_get_addr_name.str1.1
                0x0000000000000000        0xa drivers/built-in.o
 .rodata.of_read_fmap_entry.str1.1
                0x0000000000000000       0x1b drivers/built-in.o
 .rodata.ofnode_decode_display_timing.str1.1
                0x0000000000000000       0xca drivers/built-in.o
 .rodata.ofnode_get_chosen_prop.str1.1
                0x0000000000000000        0x8 drivers/built-in.o
 .rodata.ofnode_pre_reloc.str1.1
                0x0000000000000000       0x30 drivers/built-in.o
 .rodata.ofnode_read_resource.str1.1
                0x0000000000000000        0x4 drivers/built-in.o
 .rodata.ofnode_read_resource_byname.str1.1
                0x0000000000000000        0xa drivers/built-in.o
 .rodata.input_stdio_register.str1.1
                0x0000000000000000        0x6 drivers/built-in.o
 .rodata.kbd_plain_xlate
                0x0000000000000000       0x64 drivers/built-in.o
 .rodata.kbd_plain_xlate_german
                0x0000000000000000       0x84 drivers/built-in.o
 .rodata.kbd_to_ansi364
                0x0000000000000000       0x20 drivers/built-in.o
 .rodata.key_matrix_decode_fdt.str1.1
                0x0000000000000000       0x1d drivers/built-in.o
 .data          0x0000000000000000        0x0 drivers/built-in.o
 .data.kbd_ctrl_xlate
                0x0000000000000000       0x64 drivers/built-in.o
 .data.kbd_entry
                0x0000000000000000       0x8c drivers/built-in.o
 .data.kbd_right_alt_xlate_german
                0x0000000000000000       0x58 drivers/built-in.o
 .data.kbd_shift_xlate
                0x0000000000000000       0x64 drivers/built-in.o
 .data.kbd_shift_xlate_german
                0x0000000000000000       0x84 drivers/built-in.o
 .bss           0x0000000000000000        0x0 drivers/built-in.o
 .text          0x0000000000000000        0x0 drivers/gpio/built-in.o
 .text.gpio_requestf
                0x0000000000000000       0x30 drivers/gpio/built-in.o
 .text.dm_gpio_get_open_drain
                0x0000000000000000       0x38 drivers/gpio/built-in.o
 .text.dm_gpio_set_open_drain
                0x0000000000000000       0x34 drivers/gpio/built-in.o
 .text.dm_gpio_set_dir
                0x0000000000000000       0x10 drivers/gpio/built-in.o
 .text.gpio_set_value
                0x0000000000000000       0x24 drivers/gpio/built-in.o
 .text.gpio_claim_vector
                0x0000000000000000       0x5e drivers/gpio/built-in.o
 .text.gpio_get_values_as_int
                0x0000000000000000       0x32 drivers/gpio/built-in.o
 .text.dm_gpio_get_values_as_int
                0x0000000000000000       0x3a drivers/gpio/built-in.o
 .text.gpio_request_by_name_nodev
                0x0000000000000000       0x48 drivers/gpio/built-in.o
 .text.dm_gpio_free
                0x0000000000000000       0x14 drivers/gpio/built-in.o
 .text.gpio_free_list
                0x0000000000000000       0x32 drivers/gpio/built-in.o
 .text.gpio_free_list_nodev
                0x0000000000000000       0x14 drivers/gpio/built-in.o
 .text.gpio_request_list_by_name_nodev
                0x0000000000000000       0x70 drivers/gpio/built-in.o
 .text.gpio_request_list_by_name
                0x0000000000000000       0x1a drivers/gpio/built-in.o
 .text.gpio_get_number
                0x0000000000000000       0x16 drivers/gpio/built-in.o
 .text.sunxi_name_to_gpio_bank
                0x0000000000000000       0x24 drivers/gpio/built-in.o
 .rodata.dm_gpio_get_open_drain.str1.1
                0x0000000000000000        0xf drivers/gpio/built-in.o
 .rodata.dm_gpio_set_open_drain.str1.1
                0x0000000000000000        0xf drivers/gpio/built-in.o
 .data          0x0000000000000000        0x0 drivers/gpio/built-in.o
 .bss           0x0000000000000000        0x0 drivers/gpio/built-in.o
 .text          0x0000000000000000        0x0 drivers/serial/built-in.o
 .text.ns16550_calc_divisor
                0x0000000000000000       0x10 drivers/serial/built-in.o
 .text.NS16550_reinit
                0x0000000000000000       0x3e drivers/serial/built-in.o
 .text.NS16550_putc
                0x0000000000000000       0x28 drivers/serial/built-in.o
 .text.NS16550_getc
                0x0000000000000000       0x28 drivers/serial/built-in.o
 .text.NS16550_tstc
                0x0000000000000000       0x16 drivers/serial/built-in.o
 .data          0x0000000000000000        0x0 drivers/serial/built-in.o
 .bss           0x0000000000000000        0x0 drivers/serial/built-in.o
 .text          0x0000000000000000        0x0 drivers/spi/built-in.o
 .text.spi_set_speed_mode
                0x0000000000000000       0x54 drivers/spi/built-in.o
 .text.dm_spi_claim_bus
                0x0000000000000000       0x6c drivers/spi/built-in.o
 .text.dm_spi_release_bus
                0x0000000000000000       0x18 drivers/spi/built-in.o
 .text.dm_spi_xfer
                0x0000000000000000       0x2e drivers/spi/built-in.o
 .text.spi_claim_bus
                0x0000000000000000       0x10 drivers/spi/built-in.o
 .text.spi_release_bus
                0x0000000000000000       0x10 drivers/spi/built-in.o
 .text.spi_xfer
                0x0000000000000000       0x1a drivers/spi/built-in.o
 .text.spi_chip_select
                0x0000000000000000       0x1a drivers/spi/built-in.o
 .text.spi_find_chip_select
                0x0000000000000000       0x3c drivers/spi/built-in.o
 .text.spi_cs_info
                0x0000000000000000       0x44 drivers/spi/built-in.o
 .text.spi_cs_is_valid
                0x0000000000000000       0x2c drivers/spi/built-in.o
 .text.spi_find_bus_and_cs
                0x0000000000000000       0x3c drivers/spi/built-in.o
 .text.spi_get_bus_and_cs
                0x0000000000000000       0xec drivers/spi/built-in.o
 .text.spi_setup_slave_fdt
                0x0000000000000000       0x38 drivers/spi/built-in.o
 .text.spi_setup_slave
                0x0000000000000000       0x2a drivers/spi/built-in.o
 .text.spi_free_slave
                0x0000000000000000       0x1a drivers/spi/built-in.o
 .rodata.spi_get_bus_and_cs.str1.1
                0x0000000000000000       0x3d drivers/spi/built-in.o
 .rodata.spi_set_speed_mode.str1.1
                0x0000000000000000       0x35 drivers/spi/built-in.o
 .data          0x0000000000000000        0x0 drivers/spi/built-in.o
 .bss           0x0000000000000000        0x0 drivers/spi/built-in.o
 .text          0x0000000000000000        0x0 drivers/usb/common/built-in.o
 .text.usb_get_dr_mode
                0x0000000000000000       0x54 drivers/usb/common/built-in.o
 .rodata.str1.1
                0x0000000000000000       0x15 drivers/usb/common/built-in.o
 .rodata.usb_dr_modes
                0x0000000000000000       0x10 drivers/usb/common/built-in.o
 .rodata.usb_get_dr_mode.str1.1
                0x0000000000000000       0x1f drivers/usb/common/built-in.o
 .data          0x0000000000000000        0x0 drivers/usb/common/built-in.o
 .bss           0x0000000000000000        0x0 drivers/usb/common/built-in.o
 .comment       0x0000000000000000       0x75 drivers/usb/common/built-in.o
 .note.GNU-stack
                0x0000000000000000        0x0 drivers/usb/common/built-in.o
 .ARM.attributes
                0x0000000000000000       0x2b drivers/usb/common/built-in.o
 .debug_aranges
                0x0000000000000000       0x20 drivers/usb/common/built-in.o
 .debug_info    0x0000000000000000      0xf3c drivers/usb/common/built-in.o
 .debug_abbrev  0x0000000000000000      0x282 drivers/usb/common/built-in.o
 .debug_line    0x0000000000000000      0x20e drivers/usb/common/built-in.o
 .debug_frame   0x0000000000000000       0x34 drivers/usb/common/built-in.o
 .debug_str     0x0000000000000000     0x1031 drivers/usb/common/built-in.o
 .debug_loc     0x0000000000000000       0x86 drivers/usb/common/built-in.o
 .debug_ranges  0x0000000000000000       0x10 drivers/usb/common/built-in.o
 .text          0x0000000000000000        0x0 drivers/usb/gadget/built-in.o
 .text.usb_ep_autoconfig
                0x0000000000000000      0x11c drivers/usb/gadget/built-in.o
 .text.usb_ep_autoconfig_reset
                0x0000000000000000       0x28 drivers/usb/gadget/built-in.o
 .text.usb_descriptor_fillbuf
                0x0000000000000000       0x34 drivers/usb/gadget/built-in.o
 .text.usb_gadget_config_buf
                0x0000000000000000       0x5c drivers/usb/gadget/built-in.o
 .text.usb_gadget_get_string
                0x0000000000000000      0x100 drivers/usb/gadget/built-in.o
 .data          0x0000000000000000        0x0 drivers/usb/gadget/built-in.o
 .bss           0x0000000000000000        0x0 drivers/usb/gadget/built-in.o
 .bss.epnum     0x0000000000000000        0x4 drivers/usb/gadget/built-in.o
 .comment       0x0000000000000000      0x15f drivers/usb/gadget/built-in.o
 .note.GNU-stack
                0x0000000000000000        0x0 drivers/usb/gadget/built-in.o
 .ARM.attributes
                0x0000000000000000       0x2b drivers/usb/gadget/built-in.o
 .debug_aranges
                0x0000000000000000       0x70 drivers/usb/gadget/built-in.o
 .debug_info    0x0000000000000000     0x2f2d drivers/usb/gadget/built-in.o
 .debug_abbrev  0x0000000000000000      0x980 drivers/usb/gadget/built-in.o
 .debug_line    0x0000000000000000      0x645 drivers/usb/gadget/built-in.o
 .debug_frame   0x0000000000000000       0xd0 drivers/usb/gadget/built-in.o
 .debug_str     0x0000000000000000     0x2789 drivers/usb/gadget/built-in.o
 .debug_loc     0x0000000000000000      0x952 drivers/usb/gadget/built-in.o
 .debug_ranges  0x0000000000000000       0xe8 drivers/usb/gadget/built-in.o
 .text          0x0000000000000000        0x0 drivers/usb/host/built-in.o
 .text.create_int_queue
                0x0000000000000000       0x36 drivers/usb/host/built-in.o
 .text.poll_int_queue
                0x0000000000000000       0x26 drivers/usb/host/built-in.o
 .text.destroy_int_queue
                0x0000000000000000       0x2a drivers/usb/host/built-in.o
 .text.usb_setup_ehci_gadget
                0x0000000000000000       0x4c drivers/usb/host/built-in.o
 .text.usb_detect_change
                0x0000000000000000       0x78 drivers/usb/host/built-in.o
 .data          0x0000000000000000        0x0 drivers/usb/host/built-in.o
 .bss           0x0000000000000000        0x0 drivers/usb/host/built-in.o
 .text          0x0000000000000000        0x0 env/built-in.o
 .text.env_flags_parse_varaccess_from_binflags
                0x0000000000000000       0x2c env/built-in.o
 .rodata.env_flags_parse_varaccess_from_binflags.str1.1
                0x0000000000000000       0x2c env/built-in.o
 .data          0x0000000000000000        0x0 env/built-in.o
 .bss           0x0000000000000000        0x0 env/built-in.o
 .text          0x0000000000000000        0x0 fs/built-in.o
 .text.fs_uuid  0x0000000000000000       0x20 fs/built-in.o
 .text.do_fs_uuid
                0x0000000000000000       0x60 fs/built-in.o
 .text.fat_register_device
                0x0000000000000000       0x58 fs/built-in.o
 .text.file_fat_read
                0x0000000000000000       0x22 fs/built-in.o
 .rodata.fat_register_device.str1.1
                0x0000000000000000       0x2b fs/built-in.o
 .data          0x0000000000000000        0x0 fs/built-in.o
 .bss           0x0000000000000000        0x0 fs/built-in.o
 .bss.ext4fs_symlinknest
                0x0000000000000000        0x4 fs/built-in.o
 .bss.g_parent_inode
                0x0000000000000000        0x4 fs/built-in.o
 .text          0x0000000000000000        0x0 lib/built-in.o
 .text.__efi_nesting
                0x0000000000000000       0x18 lib/built-in.o
 .text.efi_add_runtime_mmio
                0x0000000000000000       0x60 lib/built-in.o
 .text.efi_dp_str
                0x0000000000000000       0x1c lib/built-in.o
 .text.efi_dp_append
                0x0000000000000000       0x68 lib/built-in.o
 .text.efi_dp_append_node
                0x0000000000000000       0x88 lib/built-in.o
 .text.efi_dp_from_dev
                0x0000000000000000       0x30 lib/built-in.o
 .text.utf16_strcpy
                0x0000000000000000        0xe lib/built-in.o
 .text.utf16_strdup
                0x0000000000000000       0x22 lib/built-in.o
 .text.crc7     0x0000000000000000       0x1c lib/built-in.o
 .text.crc8     0x0000000000000000       0x38 lib/built-in.o
 .text.lmb_dump_all
                0x0000000000000000        0x2 lib/built-in.o
 .text.lmb_is_reserved
                0x0000000000000000       0x2c lib/built-in.o
 .text.arch_lmb_reserve
                0x0000000000000000        0x2 lib/built-in.o
 .text.ldiv     0x0000000000000000       0x24 lib/built-in.o
 .text.rc4_encode
                0x0000000000000000       0x8c lib/built-in.o
 .text.inflateInit_
                0x0000000000000000        0xe lib/built-in.o
 .text.fdt_nop_property
                0x0000000000000000       0x26 lib/built-in.o
 .text.fdt_nop_node
                0x0000000000000000       0x2e lib/built-in.o
 .text._fdt_sw_check_header
                0x0000000000000000       0x30 lib/built-in.o
 .text._fdt_grab_space
                0x0000000000000000       0x96 lib/built-in.o
 .text.fdt_create
                0x0000000000000000       0x58 lib/built-in.o
 .text.fdt_resize
                0x0000000000000000       0xce lib/built-in.o
 .text.fdt_add_reservemap_entry
                0x0000000000000000       0xf6 lib/built-in.o
 .text.fdt_finish_reservemap
                0x0000000000000000       0x10 lib/built-in.o
 .text.fdt_begin_node
                0x0000000000000000       0x42 lib/built-in.o
 .text.fdt_end_node
                0x0000000000000000       0x28 lib/built-in.o
 .text.fdt_property_placeholder
                0x0000000000000000      0x162 lib/built-in.o
 .text.fdt_property
                0x0000000000000000       0x20 lib/built-in.o
 .text.fdt_finish
                0x0000000000000000      0x16c lib/built-in.o
 .text.fdt_create_empty_tree
                0x0000000000000000       0x48 lib/built-in.o
 .text.fdt_node_offset_by_prop_value
                0x0000000000000000       0x52 lib/built-in.o
 .text.fdt_stringlist_contains
                0x0000000000000000       0x42 lib/built-in.o
 .text.fdt_stringlist_count
                0x0000000000000000       0x36 lib/built-in.o
 .text.fdt_stringlist_search
                0x0000000000000000       0x64 lib/built-in.o
 .text.fdt_node_check_compatible
                0x0000000000000000       0x28 lib/built-in.o
 .text.fdt_node_offset_by_compatible
                0x0000000000000000       0x3e lib/built-in.o
 .text.fdt_set_name
                0x0000000000000000       0x52 lib/built-in.o
 .text.fdt_appendprop
                0x0000000000000000       0x90 lib/built-in.o
 .text.fdt_pack
                0x0000000000000000       0x7c lib/built-in.o
 .text.fdt_remove_unused_strings
                0x0000000000000000       0xa4 lib/built-in.o
 .text.fdt_add_region
                0x0000000000000000       0x68 lib/built-in.o
 .text.fdt_find_regions
                0x0000000000000000      0x28c lib/built-in.o
 .text.fdt_add_alias_regions
                0x0000000000000000      0x180 lib/built-in.o
 .text.fdt_next_region
                0x0000000000000000      0x412 lib/built-in.o
 .text.fdt_first_region
                0x0000000000000000       0x58 lib/built-in.o
 .text.fdtdec_get_uint
                0x0000000000000000       0x34 lib/built-in.o
 .text.fdtdec_get_compatible
                0x0000000000000000        0xc lib/built-in.o
 .text.fdtdec_get_uint64
                0x0000000000000000       0x58 lib/built-in.o
 .text.fdtdec_lookup
                0x0000000000000000       0x34 lib/built-in.o
 .text.fdtdec_next_compatible
                0x0000000000000000       0x18 lib/built-in.o
 .text.fdtdec_next_compatible_subnode
                0x0000000000000000       0x44 lib/built-in.o
 .text.fdtdec_next_alias
                0x0000000000000000       0x68 lib/built-in.o
 .text.fdtdec_add_aliases_for_id
                0x0000000000000000      0x1a4 lib/built-in.o
 .text.fdtdec_find_aliases_for_id
                0x0000000000000000       0x34 lib/built-in.o
 .text.fdtdec_check_fdt
                0x0000000000000000       0x10 lib/built-in.o
 .text.decode_timing_property
                0x0000000000000000       0x52 lib/built-in.o
 .text.fdtdec_get_int_array_count
                0x0000000000000000       0x60 lib/built-in.o
 .text.fdtdec_locate_array
                0x0000000000000000       0x24 lib/built-in.o
 .text.fdtdec_get_bool
                0x0000000000000000       0x18 lib/built-in.o
 .text.fdtdec_get_child_count
                0x0000000000000000       0x26 lib/built-in.o
 .text.fdtdec_get_byte_array
                0x0000000000000000       0x2e lib/built-in.o
 .text.fdtdec_locate_byte_array
                0x0000000000000000       0x22 lib/built-in.o
 .text.fdtdec_get_config_bool
                0x0000000000000000       0x34 lib/built-in.o
 .text.fdtdec_decode_region
                0x0000000000000000       0x60 lib/built-in.o
 .text.fdtdec_get_addr_size
                0x0000000000000000       0x28 lib/built-in.o
 .text.fdtdec_get_addr
                0x0000000000000000       0x10 lib/built-in.o
 .text.fdt_get_resource
                0x0000000000000000       0x90 lib/built-in.o
 .text.fdt_get_named_resource
                0x0000000000000000       0x32 lib/built-in.o
 .text.fdtdec_decode_memory_region
                0x0000000000000000       0xbc lib/built-in.o
 .text.fdtdec_decode_display_timing
                0x0000000000000000      0x1fc lib/built-in.o
 .text.fdtdec_setup_memory_size
                0x0000000000000000       0x4c lib/built-in.o
 .text.fdtdec_setup_memory_banksize
                0x0000000000000000       0x98 lib/built-in.o
 .text.print_freq
                0x0000000000000000      0x100 lib/built-in.o
 .text.crc32_wd_buf
                0x0000000000000000       0x36 lib/built-in.o
 .text.div_s64_rem
                0x0000000000000000       0x84 lib/built-in.o
 .text.div64_u64_rem
                0x0000000000000000       0xf6 lib/built-in.o
 .text.div64_u64
                0x0000000000000000       0xde lib/built-in.o
 .text.div64_s64
                0x0000000000000000       0x2a lib/built-in.o
 .text.iter_div_u64_rem
                0x0000000000000000       0x22 lib/built-in.o
 .text.copy_from_user
                0x0000000000000000        0xa lib/built-in.o
 .text.kmalloc  0x0000000000000000       0x20 lib/built-in.o
 .text.get_mem  0x0000000000000000       0x10 lib/built-in.o
 .text.kmem_cache_alloc
                0x0000000000000000        0xc lib/built-in.o
 .text.membuff_purge
                0x0000000000000000        0x8 lib/built-in.o
 .text.membuff_putraw
                0x0000000000000000       0x62 lib/built-in.o
 .text.membuff_putbyte
                0x0000000000000000       0x1e lib/built-in.o
 .text.membuff_getraw
                0x0000000000000000       0x50 lib/built-in.o
 .text.membuff_getbyte
                0x0000000000000000       0x20 lib/built-in.o
 .text.membuff_peekbyte
                0x0000000000000000       0x1e lib/built-in.o
 .text.membuff_get
                0x0000000000000000       0x42 lib/built-in.o
 .text.membuff_put
                0x0000000000000000       0x3c lib/built-in.o
 .text.membuff_isempty
                0x0000000000000000        0xc lib/built-in.o
 .text.membuff_avail
                0x0000000000000000       0x38 lib/built-in.o
 .text.membuff_size
                0x0000000000000000        0x8 lib/built-in.o
 .text.membuff_makecontig
                0x0000000000000000       0x42 lib/built-in.o
 .text.membuff_free
                0x0000000000000000       0x1a lib/built-in.o
 .text.membuff_readline
                0x0000000000000000       0x6a lib/built-in.o
 .text.membuff_extend_by
                0x0000000000000000       0x70 lib/built-in.o
 .text.membuff_init
                0x0000000000000000        0xc lib/built-in.o
 .text.membuff_new
                0x0000000000000000       0x24 lib/built-in.o
 .text.membuff_uninit
                0x0000000000000000        0xc lib/built-in.o
 .text.membuff_dispose
                0x0000000000000000       0x14 lib/built-in.o
 .text.strcasecmp
                0x0000000000000000        0xc lib/built-in.o
 .text.strchrnul
                0x0000000000000000       0x14 lib/built-in.o
 .text.strcspn  0x0000000000000000       0x24 lib/built-in.o
 .text.strspn   0x0000000000000000       0x24 lib/built-in.o
 .text.strtok   0x0000000000000000       0x4c lib/built-in.o
 .text.strswab  0x0000000000000000       0x26 lib/built-in.o
 .text.memchr_inv
                0x0000000000000000       0x86 lib/built-in.o
 .text.table_compute_checksum
                0x0000000000000000       0x1c lib/built-in.o
 .text.get_ticks
                0x0000000000000000       0x28 lib/built-in.o
 .text.timer_init
                0x0000000000000000        0x4 lib/built-in.o
 .text.get_timer
                0x0000000000000000       0x18 lib/built-in.o
 .text.__udelay
                0x0000000000000000       0xbc lib/built-in.o
 .text.srand    0x0000000000000000        0xc lib/built-in.o
 .text.vsnprintf
                0x0000000000000000        0x8 lib/built-in.o
 .text.scnprintf
                0x0000000000000000       0x16 lib/built-in.o
 .text.__assert_fail
                0x0000000000000000       0x10 lib/built-in.o
 .text.print_grouped_ull
                0x0000000000000000       0x60 lib/built-in.o
 .text.str2off  0x0000000000000000       0x24 lib/built-in.o
 .text.str2long
                0x0000000000000000       0x22 lib/built-in.o
 .text.strmhz   0x0000000000000000       0x4c lib/built-in.o
 .rodata.crc7_syndrome_table
                0x0000000000000000      0x100 lib/built-in.o
 .rodata.z_errmsg
                0x0000000000000000       0x28 lib/built-in.o
 .rodata.fdt_create_empty_tree.str1.1
                0x0000000000000000        0x1 lib/built-in.o
 .rodata.fdt_node_check_compatible.str1.1
                0x0000000000000000        0xb lib/built-in.o
 .rodata.fdt_add_alias_regions.str1.1
                0x0000000000000000        0x8 lib/built-in.o
 .rodata.compat_names
                0x0000000000000000       0xa8 lib/built-in.o
 .rodata.fdtdec_decode_display_timing.str1.1
                0x0000000000000000       0xca lib/built-in.o
 .rodata.fdtdec_decode_memory_region.str1.1
                0x0000000000000000       0x25 lib/built-in.o
 .rodata.fdtdec_next_alias.str1.1
                0x0000000000000000        0x7 lib/built-in.o
 .rodata.fdtdec_setup_memory_banksize.str1.1
                0x0000000000000000       0x13 lib/built-in.o
 .rodata.names.7292
                0x0000000000000000        0x3 lib/built-in.o
 .rodata.__assert_fail.str1.1
                0x0000000000000000       0x22 lib/built-in.o
 .rodata.print_grouped_ull.str1.1
                0x0000000000000000        0xb lib/built-in.o
 .rodata.strmhz.str1.1
                0x0000000000000000        0xb lib/built-in.o
 .data          0x0000000000000000        0x0 lib/built-in.o
 .data.cur      0x0000000000000000        0x4 lib/built-in.o
 .data.current  0x0000000000000000        0x4 lib/built-in.o
 .bss           0x0000000000000000        0x0 lib/built-in.o
 .bss.___strtok
                0x0000000000000000        0x4 lib/built-in.o
 .text          0x0000000000000000        0x0 net/built-in.o
 .text.add_ip_checksums
                0x0000000000000000       0x34 net/built-in.o
 .text.eth_init_state_only
                0x0000000000000000       0x28 net/built-in.o
 .text.eth_is_active
                0x0000000000000000       0x26 net/built-in.o
 .text.net_get_udp_handler
                0x0000000000000000        0xc net/built-in.o
 .text.net_set_arp_handler
                0x0000000000000000       0x18 net/built-in.o
 .text.random_port
                0x0000000000000000       0x1a net/built-in.o
 .text.vlan_to_string
                0x0000000000000000       0x48 net/built-in.o
 .text.env_get_vlan
                0x0000000000000000       0x12 net/built-in.o
 .rodata.vlan_to_string.str1.1
                0x0000000000000000        0x8 net/built-in.o
 .data          0x0000000000000000        0x0 net/built-in.o
 .data.tftp_timeout_ms
                0x0000000000000000        0x4 net/built-in.o
 .bss           0x0000000000000000        0x0 net/built-in.o
 .text          0x0000000000000000        0x0 test/dm/built-in.o
 .data          0x0000000000000000        0x0 test/dm/built-in.o
 .bss           0x0000000000000000        0x0 test/dm/built-in.o
 .text          0x0000000000000000        0x0 arch/arm/lib/eabi_compat.o
 .data          0x0000000000000000        0x0 arch/arm/lib/eabi_compat.o
 .bss           0x0000000000000000        0x0 arch/arm/lib/eabi_compat.o
 .text.raise    0x0000000000000000       0x14 arch/arm/lib/eabi_compat.o
 .text.__aeabi_unwind_cpp_pr0
                0x0000000000000000        0x2 arch/arm/lib/eabi_compat.o
 .text.__aeabi_unwind_cpp_pr1
                0x0000000000000000        0x2 arch/arm/lib/eabi_compat.o
 .text.__aeabi_memcpy
                0x0000000000000000        0x8 arch/arm/lib/eabi_compat.o
 .text.__aeabi_memset
                0x0000000000000000        0xe arch/arm/lib/eabi_compat.o
 .rodata.raise.str1.1
                0x0000000000000000       0x1b arch/arm/lib/eabi_compat.o
 .debug_info    0x0000000000000000      0xa68 arch/arm/lib/eabi_compat.o
 .debug_abbrev  0x0000000000000000      0x244 arch/arm/lib/eabi_compat.o
 .debug_loc     0x0000000000000000      0x108 arch/arm/lib/eabi_compat.o
 .debug_aranges
                0x0000000000000000       0x38 arch/arm/lib/eabi_compat.o
 .debug_ranges  0x0000000000000000       0x28 arch/arm/lib/eabi_compat.o
 .debug_line    0x0000000000000000      0x187 arch/arm/lib/eabi_compat.o
 .debug_str     0x0000000000000000      0x96e arch/arm/lib/eabi_compat.o
 .comment       0x0000000000000000       0x75 arch/arm/lib/eabi_compat.o
 .note.GNU-stack
                0x0000000000000000        0x0 arch/arm/lib/eabi_compat.o
 .debug_frame   0x0000000000000000       0x78 arch/arm/lib/eabi_compat.o
 .ARM.attributes
                0x0000000000000000       0x2b arch/arm/lib/eabi_compat.o
 .text          0x0000000000000000        0x0 arch/arm/lib/lib.a(ashldi3.o)
 .data          0x0000000000000000        0x0 arch/arm/lib/lib.a(ashldi3.o)
 .bss           0x0000000000000000        0x0 arch/arm/lib/lib.a(ashldi3.o)
 .text          0x0000000000000000        0x0 arch/arm/lib/lib.a(lib1funcs.o)
 .data          0x0000000000000000        0x0 arch/arm/lib/lib.a(lib1funcs.o)
 .bss           0x0000000000000000        0x0 arch/arm/lib/lib.a(lib1funcs.o)
 .text.__umodsi3
                0x0000000000000000       0xa0 arch/arm/lib/lib.a(lib1funcs.o)
 .text.__modsi3
                0x0000000000000000       0xb8 arch/arm/lib/lib.a(lib1funcs.o)
 .text          0x0000000000000000        0x0 arch/arm/lib/lib.a(lshrdi3.o)
 .data          0x0000000000000000        0x0 arch/arm/lib/lib.a(lshrdi3.o)
 .bss           0x0000000000000000        0x0 arch/arm/lib/lib.a(lshrdi3.o)
 .text          0x0000000000000000        0x0 arch/arm/lib/lib.a(muldi3.o)
 .data          0x0000000000000000        0x0 arch/arm/lib/lib.a(muldi3.o)
 .bss           0x0000000000000000        0x0 arch/arm/lib/lib.a(muldi3.o)
 .text          0x0000000000000000        0x0 arch/arm/lib/lib.a(div0.o)
 .data          0x0000000000000000        0x0 arch/arm/lib/lib.a(div0.o)
 .bss           0x0000000000000000        0x0 arch/arm/lib/lib.a(div0.o)

Memory Configuration

Name             Origin             Length             Attributes
*default*        0x0000000000000000 0xffffffffffffffff

Linker script and memory map

Address of section .text set to 0x81700000
                0x0000000000000000                . = 0x0
                0x0000000000000000                . = ALIGN (0x4)

.text           0x0000000081700000    0x2bd68
 *(.__image_copy_start)
 .__image_copy_start
                0x0000000081700000        0x0 arch/arm/lib/built-in.o
                0x0000000081700000                __image_copy_start
 *(.vectors)
 .vectors       0x0000000081700000      0x2e8 arch/arm/lib/built-in.o
                0x0000000081700000                _start
                0x0000000081700020                _undefined_instruction
                0x0000000081700024                _software_interrupt
                0x0000000081700028                _prefetch_abort
                0x000000008170002c                _data_abort
                0x0000000081700030                _not_used
                0x0000000081700034                _irq
                0x0000000081700038                _fiq
                0x0000000081700040                IRQ_STACK_START_IN
 arch/arm/cpu/arm926ejs/start.o(.text*)
 .text          0x00000000817002e8       0x64 arch/arm/cpu/arm926ejs/start.o
                0x00000000817002e8                reset
                0x00000000817002ec                save_boot_params_ret
                0x0000000081700304                c_runtime_cpu_setup
                0x0000000081700348                save_boot_params
 *(.text*)
 .text.cleanup_before_linux
                0x000000008170034c       0x20 arch/arm/cpu/arm926ejs/built-in.o
                0x000000008170034c                cleanup_before_linux
 .text.flush_dcache_all
                0x000000008170036c       0x14 arch/arm/cpu/arm926ejs/built-in.o
                0x000000008170036c                flush_dcache_all
 .text.flush_dcache_range
                0x0000000081700380       0x38 arch/arm/cpu/arm926ejs/built-in.o
                0x0000000081700380                flush_dcache_range
 .text.l2_cache_disable
                0x00000000817003b8        0x4 arch/arm/cpu/arm926ejs/built-in.o
                0x00000000817003b8                l2_cache_disable
 .text.timer_init
                0x00000000817003bc       0x20 arch/arm/cpu/arm926ejs/built-in.o
                0x00000000817003bc                timer_init
 .text.get_timer_masked
                0x00000000817003dc       0x50 arch/arm/cpu/arm926ejs/built-in.o
                0x00000000817003dc                get_timer_masked
 .text.get_timer
                0x000000008170042c       0x14 arch/arm/cpu/arm926ejs/built-in.o
                0x000000008170042c                get_timer
 .text.__udelay
                0x0000000081700440       0x38 arch/arm/cpu/arm926ejs/built-in.o
                0x0000000081700440                __udelay
 .text.get_ticks
                0x0000000081700478       0x10 arch/arm/cpu/arm926ejs/built-in.o
                0x0000000081700478                get_ticks
 .text.get_tbclk
                0x0000000081700488        0x6 arch/arm/cpu/arm926ejs/built-in.o
                0x0000000081700488                get_tbclk
 *fill*         0x000000008170048e        0x2 
 .text.lowlevel_init
                0x0000000081700490       0x24 arch/arm/cpu/arm926ejs/built-in.o
                0x0000000081700490                lowlevel_init
 *fill*         0x00000000817004b4        0xc 
 .text          0x00000000817004c0      0x480 arch/arm/lib/built-in.o
                0x00000000817004c0                _main
                0x0000000081700560                memset
                0x0000000081700608                memcpy
 .text.setjmp   0x0000000081700940       0x10 arch/arm/lib/built-in.o
                0x0000000081700940                setjmp
 .text.longjmp  0x0000000081700950       0x1c arch/arm/lib/built-in.o
                0x0000000081700950                longjmp
 .text.relocate_vectors
                0x000000008170096c       0x90 arch/arm/lib/built-in.o
                0x000000008170096c                relocate_vectors
                0x0000000081700994                relocate_code
 .text.arch_fixup_fdt
                0x00000000817009fc       0x28 arch/arm/lib/built-in.o
                0x00000000817009fc                arch_fixup_fdt
 .text.arch_lmb_reserve
                0x0000000081700a24       0x28 arch/arm/lib/built-in.o
                0x0000000081700a24                arch_lmb_reserve
 .text.board_quiesce_devices
                0x0000000081700a4c        0x2 arch/arm/lib/built-in.o
                0x0000000081700a4c                board_quiesce_devices
 *fill*         0x0000000081700a4e        0x2 
 .text.boot_jump_linux
                0x0000000081700a50       0x9c arch/arm/lib/built-in.o
 .text.setup_board_tags
                0x0000000081700aec        0x2 arch/arm/lib/built-in.o
                0x0000000081700aec                setup_board_tags
 *fill*         0x0000000081700aee        0x2 
 .text.boot_prep_linux
                0x0000000081700af0      0x12c arch/arm/lib/built-in.o
 .text.do_bootm_linux
                0x0000000081700c1c       0x48 arch/arm/lib/built-in.o
                0x0000000081700c1c                do_bootm_linux
 .text.boot_prep_vxworks
                0x0000000081700c64       0x3c arch/arm/lib/built-in.o
                0x0000000081700c64                boot_prep_vxworks
 .text.boot_jump_vxworks
                0x0000000081700ca0       0x10 arch/arm/lib/built-in.o
                0x0000000081700ca0                boot_jump_vxworks
 .text.bootz_setup
                0x0000000081700cb0       0x7c arch/arm/lib/built-in.o
                0x0000000081700cb0                bootz_setup
 .text.arch_reserve_stacks
                0x0000000081700d2c       0x1a arch/arm/lib/built-in.o
                0x0000000081700d2c                arch_reserve_stacks
 *fill*         0x0000000081700d46        0x2 
 .text.interrupt_init
                0x0000000081700d48       0x1c arch/arm/lib/built-in.o
                0x0000000081700d48                interrupt_init
 .text.enable_interrupts
                0x0000000081700d64        0x2 arch/arm/lib/built-in.o
                0x0000000081700d64                enable_interrupts
 .text.disable_interrupts
                0x0000000081700d66        0x4 arch/arm/lib/built-in.o
                0x0000000081700d66                disable_interrupts
 *fill*         0x0000000081700d6a        0x2 
 .text.bad_mode
                0x0000000081700d6c       0x10 arch/arm/lib/built-in.o
                0x0000000081700d6c                bad_mode
 .text.show_regs
                0x0000000081700d7c       0xfc arch/arm/lib/built-in.o
                0x0000000081700d7c                show_regs
 .text.do_undefined_instruction
                0x0000000081700e78       0x28 arch/arm/lib/built-in.o
                0x0000000081700e78                do_undefined_instruction
 .text.do_software_interrupt
                0x0000000081700ea0       0x28 arch/arm/lib/built-in.o
                0x0000000081700ea0                do_software_interrupt
 .text.do_prefetch_abort
                0x0000000081700ec8       0x28 arch/arm/lib/built-in.o
                0x0000000081700ec8                do_prefetch_abort
 .text.do_data_abort
                0x0000000081700ef0       0x28 arch/arm/lib/built-in.o
                0x0000000081700ef0                do_data_abort
 .text.do_not_used
                0x0000000081700f18       0x28 arch/arm/lib/built-in.o
                0x0000000081700f18                do_not_used
 .text.do_fiq   0x0000000081700f40       0x28 arch/arm/lib/built-in.o
                0x0000000081700f40                do_fiq
 .text.do_irq   0x0000000081700f68       0x28 arch/arm/lib/built-in.o
                0x0000000081700f68                do_irq
 .text.reset_misc
                0x0000000081700f90        0x2 arch/arm/lib/built-in.o
                0x0000000081700f90                reset_misc
 *fill*         0x0000000081700f92        0x2 
 .text.do_reset
                0x0000000081700f94       0x28 arch/arm/lib/built-in.o
                0x0000000081700f94                do_reset
 .text.flush_cache
                0x0000000081700fbc        0x8 arch/arm/lib/built-in.o
                0x0000000081700fbc                flush_cache
 .text.check_cache_range
                0x0000000081700fc4       0x34 arch/arm/lib/built-in.o
                0x0000000081700fc4                check_cache_range
 .text.arm_init_before_mmu
                0x0000000081700ff8        0x4 arch/arm/lib/built-in.o
                0x0000000081700ff8                arm_init_before_mmu
 .text.arm_init_domains
                0x0000000081700ffc        0x4 arch/arm/lib/built-in.o
                0x0000000081700ffc                arm_init_domains
 .text.set_section_dcache
                0x0000000081701000       0x14 arch/arm/lib/built-in.o
                0x0000000081701000                set_section_dcache
 .text.dram_bank_mmu_setup
                0x0000000081701014       0x40 arch/arm/lib/built-in.o
                0x0000000081701014                dram_bank_mmu_setup
 .text.icache_disable
                0x0000000081701054       0x14 arch/arm/lib/built-in.o
                0x0000000081701054                icache_disable
 .text.dcache_enable
                0x0000000081701068       0x64 arch/arm/lib/built-in.o
                0x0000000081701068                dcache_enable
 .text.dcache_disable
                0x00000000817010cc       0x24 arch/arm/lib/built-in.o
                0x00000000817010cc                dcache_disable
 .text.dcache_status
                0x00000000817010f0       0x10 arch/arm/lib/built-in.o
                0x00000000817010f0                dcache_status
 .text.s_init   0x0000000081701100       0x2e arch/arm/mach-sunxi/built-in.o
                0x0000000081701100                s_init
 *fill*         0x000000008170112e        0x2 
 .text.sunxi_get_boot_device
                0x0000000081701130       0x4c arch/arm/mach-sunxi/built-in.o
                0x0000000081701130                sunxi_get_boot_device
 .text.reset_cpu
                0x000000008170117c       0x1c arch/arm/mach-sunxi/built-in.o
                0x000000008170117c                reset_cpu
 .text.enable_caches
                0x0000000081701198        0xe arch/arm/mach-sunxi/built-in.o
                0x0000000081701198                enable_caches
 .text.clock_init_sec
                0x00000000817011a6        0x4 arch/arm/mach-sunxi/built-in.o
                0x00000000817011a8                clock_init_sec
 .text.clock_init
                0x00000000817011aa        0xe arch/arm/mach-sunxi/built-in.o
                0x00000000817011aa                clock_init
 .text.print_cpuinfo
                0x00000000817011b8       0x10 arch/arm/mach-sunxi/built-in.o
                0x00000000817011b8                print_cpuinfo
 .text.sunxi_get_sid
                0x00000000817011c8       0x2c arch/arm/mach-sunxi/built-in.o
                0x00000000817011c8                sunxi_get_sid
 .text.sunxi_gpio_set_cfgbank
                0x00000000817011f4       0x20 arch/arm/mach-sunxi/built-in.o
                0x00000000817011f4                sunxi_gpio_set_cfgbank
 .text.sunxi_gpio_set_cfgpin
                0x0000000081701214       0x2c arch/arm/mach-sunxi/built-in.o
                0x0000000081701214                sunxi_gpio_set_cfgpin
 .text.sunxi_gpio_get_cfgbank
                0x0000000081701240       0x18 arch/arm/mach-sunxi/built-in.o
                0x0000000081701240                sunxi_gpio_get_cfgbank
 .text.sunxi_gpio_set_drv
                0x0000000081701258       0x40 arch/arm/mach-sunxi/built-in.o
                0x0000000081701258                sunxi_gpio_set_drv
 .text.sunxi_gpio_set_pull
                0x0000000081701298       0x40 arch/arm/mach-sunxi/built-in.o
                0x0000000081701298                sunxi_gpio_set_pull
 .text.sunxi_gpio_parse_pin_name
                0x00000000817012d8       0x2a arch/arm/mach-sunxi/built-in.o
                0x00000000817012d8                sunxi_gpio_parse_pin_name
 *fill*         0x0000000081701302        0x2 
 .text.sunxi_gpio_setup_dt_pins
                0x0000000081701304      0x114 arch/arm/mach-sunxi/built-in.o
                0x0000000081701304                sunxi_gpio_setup_dt_pins
 .text.sunxi_usb_phy_probe
                0x0000000081701418       0xa0 arch/arm/mach-sunxi/built-in.o
                0x0000000081701418                sunxi_usb_phy_probe
 .text.clock_init_uart
                0x00000000817014b8       0x44 arch/arm/mach-sunxi/built-in.o
                0x00000000817014b8                clock_init_uart
 .text.clock_get_pll6
                0x00000000817014fc       0x28 arch/arm/mach-sunxi/built-in.o
                0x00000000817014fc                clock_get_pll6
 .text.setup_environment
                0x0000000081701524       0xe0 board/sunxi/built-in.o
 .text.i2c_init_board
                0x0000000081701604        0x2 board/sunxi/built-in.o
                0x0000000081701604                i2c_init_board
 *fill*         0x0000000081701606        0x2 
 .text.board_init
                0x0000000081701608       0x6c board/sunxi/built-in.o
                0x0000000081701608                board_init
 .text.dram_init
                0x0000000081701674       0x1a board/sunxi/built-in.o
                0x0000000081701674                dram_init
 .text.board_mmc_init
                0x000000008170168e       0x3a board/sunxi/built-in.o
                0x000000008170168e                board_mmc_init
 .text.get_board_serial
                0x00000000817016c8       0x2c board/sunxi/built-in.o
                0x00000000817016c8                get_board_serial
 .text.misc_init_r
                0x00000000817016f4       0xc4 board/sunxi/built-in.o
                0x00000000817016f4                misc_init_r
 .text.ft_board_setup
                0x00000000817017b8       0x10 board/sunxi/built-in.o
                0x00000000817017b8                ft_board_setup
 .text.do_go_exec
                0x00000000817017c8        0xc cmd/built-in.o
                0x00000000817017c8                do_go_exec
 .text.do_go    0x00000000817017d4       0x48 cmd/built-in.o
 .text.do_bootm
                0x000000008170181c       0xac cmd/built-in.o
                0x000000008170181c                do_bootm
 .text.do_bootd
                0x00000000817018c8       0x20 cmd/built-in.o
                0x00000000817018c8                do_bootd
 .text.image_info
                0x00000000817018e8       0xb0 cmd/built-in.o
 .text.do_iminfo
                0x0000000081701998       0x48 cmd/built-in.o
 .text.bootm_maybe_autostart
                0x00000000817019e0       0x58 cmd/built-in.o
                0x00000000817019e0                bootm_maybe_autostart
 .text.do_help  0x0000000081701a38       0x30 cmd/built-in.o
 .text.do_version
                0x0000000081701a68       0x2c cmd/built-in.o
 .text.blk_common_cmd
                0x0000000081701a94      0x1ec cmd/built-in.o
                0x0000000081701a94                blk_common_cmd
 .text.source   0x0000000081701c80       0xcc cmd/built-in.o
                0x0000000081701c80                source
 .text.do_source
                0x0000000081701d4c       0x30 cmd/built-in.o
 .text.print_num
                0x0000000081701d7c       0x18 cmd/built-in.o
 .text.do_bdinfo
                0x0000000081701d94       0xd4 cmd/built-in.o
 .text.efi_init_obj_list
                0x0000000081701e68       0x30 cmd/built-in.o
 .text.do_bootefi_exec
                0x0000000081701e98      0x310 cmd/built-in.o
 .text.do_bootefi
                0x00000000817021a8       0xd4 cmd/built-in.o
 .text.efi_set_bootdev
                0x000000008170227c       0xc0 cmd/built-in.o
                0x000000008170227c                efi_set_bootdev
 .text.do_bootz
                0x000000008170233c       0x9c cmd/built-in.o
                0x000000008170233c                do_bootz
 .text.do_coninfo
                0x00000000817023d8       0x74 cmd/built-in.o
 .text.do_echo  0x000000008170244c       0x70 cmd/built-in.o
 .text.load_elf_image_shdr
                0x00000000817024bc       0x50 cmd/built-in.o
 .text.valid_elf_image
                0x000000008170250c       0x2c cmd/built-in.o
                0x000000008170250c                valid_elf_image
 .text.do_bootelf
                0x0000000081702538      0x118 cmd/built-in.o
                0x0000000081702538                do_bootelf
 .text.do_bootvx
                0x0000000081702650      0x260 cmd/built-in.o
                0x0000000081702650                do_bootvx
 .text.do_exit  0x00000000817028b0       0x1a cmd/built-in.o
 .text.do_ext4_size
                0x00000000817028ca        0xc cmd/built-in.o
                0x00000000817028ca                do_ext4_size
 .text.do_ext4_load
                0x00000000817028d6        0xc cmd/built-in.o
                0x00000000817028d6                do_ext4_load
 .text.do_ext4_ls
                0x00000000817028e2        0xc cmd/built-in.o
                0x00000000817028e2                do_ext4_ls
 .text.do_ext2load
                0x00000000817028ee        0xc cmd/built-in.o
                0x00000000817028ee                do_ext2load
 .text.do_ext2ls
                0x00000000817028fa        0xc cmd/built-in.o
 .text.do_fat_size
                0x0000000081702906        0xc cmd/built-in.o
                0x0000000081702906                do_fat_size
 .text.do_fat_fsload
                0x0000000081702912        0xc cmd/built-in.o
                0x0000000081702912                do_fat_fsload
 .text.do_fat_ls
                0x000000008170291e        0xc cmd/built-in.o
 *fill*         0x000000008170292a        0x2 
 .text.do_fat_fswrite
                0x000000008170292c       0xb4 cmd/built-in.o
 .text.do_fat_fsinfo
                0x00000000817029e0       0x58 cmd/built-in.o
 .text.fdt_valid
                0x0000000081702a38       0xc0 cmd/built-in.o
 .text.is_printable_string
                0x0000000081702af8       0x50 cmd/built-in.o
 .text.print_data
                0x0000000081702b48      0x114 cmd/built-in.o
 .text.set_working_fdt_addr
                0x0000000081702c5c       0x20 cmd/built-in.o
                0x0000000081702c5c                set_working_fdt_addr
 .text.do_fdt   0x0000000081702c7c      0xbd4 cmd/built-in.o
 .text.do_flinfo
                0x0000000081703850        0x4 cmd/built-in.o
 .text.do_protect
                0x0000000081703854        0xe cmd/built-in.o
 .text.do_flerase
                0x0000000081703862        0x4 cmd/built-in.o
 .text.do_size_wrapper
                0x0000000081703866        0xc cmd/built-in.o
 *fill*         0x0000000081703872        0x2 
 .text.do_load_wrapper
                0x0000000081703874       0x3c cmd/built-in.o
 .text.do_save_wrapper
                0x00000000817038b0        0xc cmd/built-in.o
 .text.do_ls_wrapper
                0x00000000817038bc        0xc cmd/built-in.o
 .text.do_fstype_wrapper
                0x00000000817038c8        0x8 cmd/built-in.o
 .text.gpio_get_description
                0x00000000817038d0       0x84 cmd/built-in.o
 .text.do_gpio  0x0000000081703954      0x228 cmd/built-in.o
 .text.evalexp  0x0000000081703b7c       0x48 cmd/built-in.o
 .text.evalstr  0x0000000081703bc4       0x40 cmd/built-in.o
 .text.binary_test
                0x0000000081703c04      0x104 cmd/built-in.o
 .text.do_itest
                0x0000000081703d08       0x4c cmd/built-in.o
 .text.bin_data_init
                0x0000000081703d54       0x1c cmd/built-in.o
 .text.k_data_save
                0x0000000081703d70       0x34 cmd/built-in.o
 .text.k_data_restore
                0x0000000081703da4       0x34 cmd/built-in.o
 .text.getcxmodem
                0x0000000081703dd8       0x1c cmd/built-in.o
 .text.load_serial_ymodem
                0x0000000081703df4       0xa0 cmd/built-in.o
 .text.bin_data_char
                0x0000000081703e94       0x1c cmd/built-in.o
 .text.chk1.constprop.2
                0x0000000081703eb0       0x24 cmd/built-in.o
 .text.s1_sendpacket.constprop.3
                0x0000000081703ed4       0x40 cmd/built-in.o
 .text.load_serial
                0x0000000081703f14      0x150 cmd/built-in.o
 .text.do_load_serial
                0x0000000081704064       0x9c cmd/built-in.o
 .text.do_load_serial_bin
                0x0000000081704100      0x530 cmd/built-in.o
 .text.do_mem_mw
                0x0000000081704630       0x84 cmd/built-in.o
 .text.do_mem_loop
                0x00000000817046b4       0x86 cmd/built-in.o
 *fill*         0x000000008170473a        0x2 
 .text.do_mem_md
                0x000000008170473c       0xa4 cmd/built-in.o
 .text.do_mem_cmp
                0x00000000817047e0       0xe8 cmd/built-in.o
 .text.do_mem_base
                0x00000000817048c8       0x30 cmd/built-in.o
 .text.do_mem_cp
                0x00000000817048f8       0x84 cmd/built-in.o
 .text.mod_mem.isra.0
                0x000000008170497c       0xec cmd/built-in.o
 .text.do_mem_mm
                0x0000000081704a68       0x12 cmd/built-in.o
 .text.do_mem_nm
                0x0000000081704a7a       0x12 cmd/built-in.o
 .text.extract_range
                0x0000000081704a8c       0x2c cmd/built-in.o
 .text.do_mii   0x0000000081704ab8      0x640 cmd/built-in.o
 .text.do_mmcops
                0x00000000817050f8       0x6c cmd/built-in.o
 .text.init_mmc_device
                0x0000000081705164       0x38 cmd/built-in.o
 .text.do_mmc_rescan
                0x000000008170519c       0x18 cmd/built-in.o
 .text.do_mmc_hwpartition
                0x00000000817051b4      0x35c cmd/built-in.o
 .text.do_mmc_list
                0x0000000081705510        0xc cmd/built-in.o
 .text.do_mmc_dev
                0x000000008170551c       0xc4 cmd/built-in.o
 .text.do_mmc_read
                0x00000000817055e0       0x90 cmd/built-in.o
 .text.do_mmc_erase
                0x0000000081705670       0x9c cmd/built-in.o
 .text.do_mmc_write
                0x000000008170570c       0xa8 cmd/built-in.o
 .text.do_mmcinfo
                0x00000000817057b4      0x2b0 cmd/built-in.o
 .text.do_mmc_setdsr
                0x0000000081705a64       0x70 cmd/built-in.o
 .text.do_mmc_part
                0x0000000081705ad4       0x40 cmd/built-in.o
 .text.netboot_common
                0x0000000081705b14      0x1b4 cmd/built-in.o
 .text.do_bootp
                0x0000000081705cc8        0xc cmd/built-in.o
 .text.do_dhcp  0x0000000081705cd4        0xc cmd/built-in.o
 .text.do_nfs   0x0000000081705ce0        0xc cmd/built-in.o
 .text.do_tftpb
                0x0000000081705cec       0x26 cmd/built-in.o
                0x0000000081705cec                do_tftpb
 *fill*         0x0000000081705d12        0x2 
 .text.do_ping  0x0000000081705d14       0x48 cmd/built-in.o
 .text.do_part_list
                0x0000000081705d5c       0xfc cmd/built-in.o
 .text.do_part_start
                0x0000000081705e58       0x88 cmd/built-in.o
 .text.do_part_size
                0x0000000081705ee0       0x88 cmd/built-in.o
 .text.do_part  0x0000000081705f68       0xb4 cmd/built-in.o
 .text.eol_or_eof
                0x000000008170601c       0x14 cmd/built-in.o
 .text.do_pxe   0x0000000081706030       0x40 cmd/built-in.o
 .text.label_print
                0x0000000081706070       0x18 cmd/built-in.o
 .text.do_get_tftp
                0x0000000081706088       0x2c cmd/built-in.o
 .text.from_env
                0x00000000817060b4       0x1c cmd/built-in.o
 .text.get_string
                0x00000000817060d0       0x7c cmd/built-in.o
 .text.label_destroy
                0x000000008170614c       0x48 cmd/built-in.o
 .text.destroy_pxe_menu
                0x0000000081706194       0x38 cmd/built-in.o
 .text.get_token
                0x00000000817061cc       0x98 cmd/built-in.o
 .text.parse_sliteral
                0x0000000081706264       0x34 cmd/built-in.o
 .text.parse_integer
                0x0000000081706298       0x44 cmd/built-in.o
 .text.do_get_any
                0x00000000817062dc       0x2c cmd/built-in.o
 .text.do_get_fat
                0x0000000081706308       0x28 cmd/built-in.o
 .text.do_get_ext2
                0x0000000081706330       0x28 cmd/built-in.o
 .text.format_mac_pxe.constprop.6
                0x0000000081706358       0x4c cmd/built-in.o
 .text.get_relfile
                0x00000000817063a4       0xc0 cmd/built-in.o
 .text.get_pxe_file
                0x0000000081706464       0x3c cmd/built-in.o
 .text.handle_include
                0x00000000817064a0       0x64 cmd/built-in.o
 .text.parse_pxefile_top
                0x0000000081706504      0x2ac cmd/built-in.o
 .text.parse_pxefile
                0x00000000817067b0       0x40 cmd/built-in.o
 .text.get_pxelinux_path
                0x00000000817067f0       0x54 cmd/built-in.o
 .text.do_pxe_get
                0x0000000081706844       0xf8 cmd/built-in.o
 .text.get_relfile_envaddr
                0x000000008170693c       0x32 cmd/built-in.o
 *fill*         0x000000008170696e        0x2 
 .text.label_boot
                0x0000000081706970      0x3b4 cmd/built-in.o
 .text.handle_pxe_menu
                0x0000000081706d24       0xd8 cmd/built-in.o
 .text.do_pxe_boot
                0x0000000081706dfc       0x94 cmd/built-in.o
 .text.do_sysboot
                0x0000000081706e90      0x148 cmd/built-in.o
 .text.get_arg  0x0000000081706fd8       0x32 cmd/built-in.o
 *fill*         0x000000008170700a        0x2 
 .text.do_setexpr
                0x000000008170700c       0xb8 cmd/built-in.o
 .text.do_false
                0x00000000817070c4        0x4 cmd/built-in.o
 .text.do_true  0x00000000817070c8        0x4 cmd/built-in.o
 .text.do_test  0x00000000817070cc      0x1f8 cmd/built-in.o
 .text.usb_get_class_desc
                0x00000000817072c4       0x68 cmd/built-in.o
 .text.usb_display_class_sub
                0x000000008170732c       0xf8 cmd/built-in.o
 .text.usb_display_desc
                0x0000000081707424       0xf8 cmd/built-in.o
 .text.usb_show_tree_graph
                0x000000008170751c      0x194 cmd/built-in.o
 .text.usb_show_subtree
                0x00000000817076b0       0x24 cmd/built-in.o
 .text.usb_for_each_root_dev
                0x00000000817076d4       0x4a cmd/built-in.o
 *fill*         0x000000008170771e        0x2 
 .text.usb_display_string
                0x0000000081707720       0x34 cmd/built-in.o
 .text.usb_display_config
                0x0000000081707754      0x1ac cmd/built-in.o
 .text.usb_show_info
                0x0000000081707900       0x5c cmd/built-in.o
 .text.usb_find_device
                0x000000008170795c       0x74 cmd/built-in.o
 .text.do_usbboot
                0x00000000817079d0       0x18 cmd/built-in.o
 .text.do_usb_start
                0x00000000817079e8       0x28 cmd/built-in.o
 .text.usb_show_tree
                0x0000000081707a10       0x14 cmd/built-in.o
                0x0000000081707a10                usb_show_tree
 .text.do_usb   0x0000000081707a24      0x2ac cmd/built-in.o
 .text.common_diskboot
                0x0000000081707cd0      0x184 cmd/built-in.o
                0x0000000081707cd0                common_diskboot
 .text.do_imgextract
                0x0000000081707e54      0x1cc cmd/built-in.o
 .text.extract_val
                0x0000000081708020       0x58 cmd/built-in.o
 .text.extract_env
                0x0000000081708078       0x9c cmd/built-in.o
 .text.set_gpt_info.isra.0.constprop.1
                0x0000000081708114      0x32c cmd/built-in.o
 .text.do_gpt   0x0000000081708440      0x238 cmd/built-in.o
 .text.do_env_delete
                0x0000000081708678       0x68 cmd/built-in.o
 .text.do_env_exists
                0x00000000817086e0       0x3c cmd/built-in.o
 .text.do_env_save
                0x000000008170871c       0x24 cmd/built-in.o
 .text.do_env   0x0000000081708740       0x44 cmd/built-in.o
 .text.env_print
                0x0000000081708784       0x80 cmd/built-in.o
 .text.do_env_print
                0x0000000081708804       0x84 cmd/built-in.o
 .text.do_env_import
                0x0000000081708888      0x188 cmd/built-in.o
 .text.do_env_default
                0x0000000081708a10       0x60 cmd/built-in.o
 .text._do_env_set.isra.0
                0x0000000081708a70      0x124 cmd/built-in.o
 .text.do_env_set
                0x0000000081708b94       0x20 cmd/built-in.o
 .text.get_env_id
                0x0000000081708bb4        0xc cmd/built-in.o
                0x0000000081708bb4                get_env_id
 .text.env_set  0x0000000081708bc0       0x44 cmd/built-in.o
                0x0000000081708bc0                env_set
 .text.env_set_ulong
                0x0000000081708c04       0x1c cmd/built-in.o
                0x0000000081708c04                env_set_ulong
 .text.env_set_hex
                0x0000000081708c20       0x28 cmd/built-in.o
                0x0000000081708c20                env_set_hex
 .text.do_env_export
                0x0000000081708c48      0x154 cmd/built-in.o
 .text.envmatch
                0x0000000081708d9c       0x44 cmd/built-in.o
                0x0000000081708d9c                envmatch
 .text.env_get_f
                0x0000000081708de0       0x94 cmd/built-in.o
                0x0000000081708de0                env_get_f
 .text.env_get  0x0000000081708e74       0x58 cmd/built-in.o
                0x0000000081708e74                env_get
 .text.env_get_hex
                0x0000000081708ecc       0x2c cmd/built-in.o
                0x0000000081708ecc                env_get_hex
 .text.env_get_ulong
                0x0000000081708ef8       0x24 cmd/built-in.o
                0x0000000081708ef8                env_get_ulong
 .text.do_env_edit.part.3
                0x0000000081708f1c       0x80 cmd/built-in.o
 .text.do_env_edit
                0x0000000081708f9c       0x26 cmd/built-in.o
 *fill*         0x0000000081708fc2        0x2 
 .text.board_init_f_alloc_reserve
                0x0000000081708fc4       0x10 common/built-in.o
                0x0000000081708fc4                board_init_f_alloc_reserve
 .text.board_init_f_init_reserve
                0x0000000081708fd4       0x1e common/built-in.o
                0x0000000081708fd4                board_init_f_init_reserve
 .text.show_boot_progress
                0x0000000081708ff2        0x4 common/built-in.o
                0x0000000081708ff2                show_boot_progress
 *fill*         0x0000000081708ff6        0x2 
 .text.main_loop
                0x0000000081708ff8       0x54 common/built-in.o
                0x0000000081708ff8                main_loop
 .text.mdelay   0x000000008170904c       0x1e common/built-in.o
 .text.dummy    0x000000008170906a        0x2 common/built-in.o
 .text.get_version
                0x000000008170906c        0x4 common/built-in.o
                0x000000008170906c                get_version
 .text.jumptable_init
                0x0000000081709070      0x130 common/built-in.o
                0x0000000081709070                jumptable_init
 .text.b_reset  0x00000000817091a0       0x10 common/built-in.o
 .text.static_get
                0x00000000817091b0       0x10 common/built-in.o
 .text.static_peek
                0x00000000817091c0        0x6 common/built-in.o
 *fill*         0x00000000817091c6        0x2 
 .text.mapset   0x00000000817091c8       0x14 common/built-in.o
 .text.syntax_err
                0x00000000817091dc       0x14 common/built-in.o
 .text.free_pipe_list
                0x00000000817091f0       0x8c common/built-in.o
 .text.xmalloc  0x000000008170927c       0x20 common/built-in.o
 .text.new_pipe
                0x000000008170929c       0x1c common/built-in.o
 .text.xrealloc
                0x00000000817092b8       0x20 common/built-in.o
 .text.done_command
                0x00000000817092d8       0x54 common/built-in.o
 .text.done_pipe
                0x000000008170932c       0x32 common/built-in.o
 *fill*         0x000000008170935e        0x2 
 .text.done_word
                0x0000000081709360      0x1cc common/built-in.o
 .text.is_assignment
                0x000000008170952c       0x34 common/built-in.o
 .text.file_get
                0x0000000081709560      0x128 common/built-in.o
 .text.do_showvar
                0x0000000081709688       0xa8 common/built-in.o
 .text.b_addchr
                0x0000000081709730       0x4c common/built-in.o
 .text.b_addqchr
                0x000000008170977c       0x38 common/built-in.o
 .text.file_peek
                0x00000000817097b4        0x6 common/built-in.o
 *fill*         0x00000000817097ba        0x2 
 .text.get_local_var
                0x00000000817097bc       0x60 common/built-in.o
                0x00000000817097bc                get_local_var
 .text.set_local_var
                0x000000008170981c      0x118 common/built-in.o
                0x000000008170981c                set_local_var
 .text.insert_var_value_sub
                0x0000000081709934      0x1c0 common/built-in.o
 .text.parse_string_outer
                0x0000000081709af4       0x98 common/built-in.o
                0x0000000081709af4                parse_string_outer
 .text.run_list_real
                0x0000000081709b8c      0x4cc common/built-in.o
 .text.parse_stream_outer
                0x000000008170a058      0x444 common/built-in.o
 .text.parse_file_outer
                0x000000008170a49c       0x30 common/built-in.o
                0x000000008170a49c                parse_file_outer
 .text.u_boot_hush_start
                0x000000008170a4cc       0x3c common/built-in.o
                0x000000008170a4cc                u_boot_hush_start
 .text.bootdelay_process
                0x000000008170a508       0x94 common/built-in.o
                0x000000008170a508                bootdelay_process
 .text.autoboot_command
                0x000000008170a59c       0xb0 common/built-in.o
                0x000000008170a59c                autoboot_command
 .text.log_init
                0x000000008170a64c        0x8 common/built-in.o
 .text.display_text_info
                0x000000008170a654        0x4 common/built-in.o
 .text.setup_mon_len
                0x000000008170a658       0x20 common/built-in.o
 .text.arch_cpu_init
                0x000000008170a678        0x4 common/built-in.o
                0x000000008170a678                arch_cpu_init
 .text.reserve_round_4k
                0x000000008170a67c       0x18 common/built-in.o
 .text.reserve_mmu
                0x000000008170a694       0x2c common/built-in.o
                0x000000008170a694                reserve_mmu
 .text.reserve_uboot
                0x000000008170a6c0       0x20 common/built-in.o
 .text.reserve_malloc
                0x000000008170a6e0       0x1c common/built-in.o
 .text.reserve_global_data
                0x000000008170a6fc       0x1a common/built-in.o
 *fill*         0x000000008170a716        0x2 
 .text.reserve_fdt
                0x000000008170a718       0x50 common/built-in.o
 .text.dram_init_banksize
                0x000000008170a768       0x20 common/built-in.o
                0x000000008170a768                dram_init_banksize
 .text.setup_reloc
                0x000000008170a788       0x28 common/built-in.o
 .text.reloc_fdt
                0x000000008170a7b0       0x28 common/built-in.o
 .text.reserve_board
                0x000000008170a7d8       0x24 common/built-in.o
 .text.announce_dram_init
                0x000000008170a7fc       0x18 common/built-in.o
 .text.init_baud_rate
                0x000000008170a814       0x24 common/built-in.o
 .text.initf_dm
                0x000000008170a838       0x10 common/built-in.o
 .text.initf_bootstage
                0x000000008170a848       0x12 common/built-in.o
 .text.arch_cpu_init_dm
                0x000000008170a85a        0x4 common/built-in.o
                0x000000008170a85a                arch_cpu_init_dm
 .text.mach_cpu_init
                0x000000008170a85e        0x4 common/built-in.o
                0x000000008170a85e                mach_cpu_init
 .text.reserve_video
                0x000000008170a862        0x4 common/built-in.o
 .text.reserve_trace
                0x000000008170a866        0x4 common/built-in.o
 .text.setup_machine
                0x000000008170a86a        0x4 common/built-in.o
 .text.reserve_bootstage
                0x000000008170a86e        0x4 common/built-in.o
 .text.display_new_sp
                0x000000008170a872        0x4 common/built-in.o
 .text.reloc_bootstage
                0x000000008170a876        0x4 common/built-in.o
 .text.initf_console_record
                0x000000008170a87a        0x4 common/built-in.o
 .text.reserve_arch
                0x000000008170a87e        0x4 common/built-in.o
                0x000000008170a87e                reserve_arch
 .text.coloured_LED_init
                0x000000008170a882        0x2 common/built-in.o
                0x000000008170a882                coloured_LED_init
 .text.red_led_on
                0x000000008170a884        0x2 common/built-in.o
                0x000000008170a884                red_led_on
 .text.board_add_ram_info
                0x000000008170a886        0x2 common/built-in.o
                0x000000008170a886                board_add_ram_info
 .text.show_dram_config
                0x000000008170a888       0x30 common/built-in.o
 .text.board_get_usable_ram_top
                0x000000008170a8b8       0x18 common/built-in.o
                0x000000008170a8b8                board_get_usable_ram_top
 .text.setup_dest_addr
                0x000000008170a8d0       0x30 common/built-in.o
 .text.reserve_stacks
                0x000000008170a900       0x1c common/built-in.o
 .text.board_init_f
                0x000000008170a91c       0x24 common/built-in.o
                0x000000008170a91c                board_init_f
 .text.initr_trace
                0x000000008170a940        0x4 common/built-in.o
 .text.initr_reloc
                0x000000008170a944       0x1c common/built-in.o
 .text.run_main_loop
                0x000000008170a960        0xa common/built-in.o
 *fill*         0x000000008170a96a        0x2 
 .text.initr_net
                0x000000008170a96c       0x1c common/built-in.o
 .text.initr_ethaddr
                0x000000008170a988       0x1c common/built-in.o
 .text.initr_enable_interrupts
                0x000000008170a9a4       0x10 common/built-in.o
 .text.initr_jumptable
                0x000000008170a9b4       0x10 common/built-in.o
 .text.initr_env
                0x000000008170a9c4       0x50 common/built-in.o
 .text.initr_mmc
                0x000000008170aa14       0x20 common/built-in.o
 .text.initr_serial
                0x000000008170aa34       0x10 common/built-in.o
 .text.initr_dm
                0x000000008170aa44       0x1a common/built-in.o
 .text.initr_bootstage
                0x000000008170aa5e       0x12 common/built-in.o
 .text.initr_malloc
                0x000000008170aa70       0x20 common/built-in.o
 .text.initr_reloc_global_data
                0x000000008170aa90       0x2c common/built-in.o
 .text.initr_caches
                0x000000008170aabc       0x10 common/built-in.o
 .text.bootstage_relocate
                0x000000008170aacc        0x4 common/built-in.o
 .text.initr_barrier
                0x000000008170aad0        0x4 common/built-in.o
 .text.initr_console_record
                0x000000008170aad4        0x4 common/built-in.o
 .text.power_init_board
                0x000000008170aad8        0x4 common/built-in.o
                0x000000008170aad8                power_init_board
 .text.initr_announce
                0x000000008170aadc        0x4 common/built-in.o
 .text.cpu_secondary_init_r
                0x000000008170aae0        0x2 common/built-in.o
                0x000000008170aae0                cpu_secondary_init_r
 .text.initr_secondary_cpu
                0x000000008170aae2       0x10 common/built-in.o
 *fill*         0x000000008170aaf2        0x2 
 .text.board_init_r
                0x000000008170aaf4       0x20 common/built-in.o
                0x000000008170aaf4                board_init_r
 .text.checkboard
                0x000000008170ab14        0x4 common/built-in.o
                0x000000008170ab14                checkboard
 .text.show_board_info
                0x000000008170ab18       0x2c common/built-in.o
                0x000000008170ab18                show_board_info
 .text.bootm_find_images
                0x000000008170ab44       0x7c common/built-in.o
                0x000000008170ab44                bootm_find_images
 .text.bootm_decomp_image
                0x000000008170abc0       0xe0 common/built-in.o
                0x000000008170abc0                bootm_decomp_image
 .text.bootm_disable_interrupts
                0x000000008170aca0       0x18 common/built-in.o
                0x000000008170aca0                bootm_disable_interrupts
 .text.do_bootm_states
                0x000000008170acb8      0x56c common/built-in.o
                0x000000008170acb8                do_bootm_states
 .text.copy_args
                0x000000008170b224       0x3c common/built-in.o
 .text.do_bootm_rtems
                0x000000008170b260       0x34 common/built-in.o
 .text.do_bootm_plan9
                0x000000008170b294       0x74 common/built-in.o
 .text.do_bootm_standalone
                0x000000008170b308       0x48 common/built-in.o
 .text.do_bootm_qnxelf
                0x000000008170b350       0x58 common/built-in.o
 .text.do_bootm_netbsd
                0x000000008170b3a8       0xb4 common/built-in.o
 .text.do_bootvx_fdt
                0x000000008170b45c       0xc8 common/built-in.o
                0x000000008170b45c                do_bootvx_fdt
 .text.do_bootm_vxworks
                0x000000008170b524       0x20 common/built-in.o
 .text.arch_preboot_os
                0x000000008170b544        0x2 common/built-in.o
                0x000000008170b544                arch_preboot_os
 .text.boot_selected_os
                0x000000008170b546       0x40 common/built-in.o
                0x000000008170b546                boot_selected_os
 *fill*         0x000000008170b586        0x2 
 .text.bootm_os_get_boot_func
                0x000000008170b588        0xc common/built-in.o
                0x000000008170b588                bootm_os_get_boot_func
 .text.of_bus_default_map
                0x000000008170b594       0xe2 common/built-in.o
 .text.of_bus_default_translate
                0x000000008170b676       0xa2 common/built-in.o
 .text.fdt_support_default_count_cells
                0x000000008170b718       0x50 common/built-in.o
                0x000000008170b718                fdt_support_default_count_cells
 .text.fdt_getprop_u32_default_node
                0x000000008170b768       0x3c common/built-in.o
                0x000000008170b768                fdt_getprop_u32_default_node
 .text.fdt_find_and_setprop
                0x000000008170b7a4       0x3e common/built-in.o
                0x000000008170b7a4                fdt_find_and_setprop
 *fill*         0x000000008170b7e2        0x2 
 .text.fdt_find_or_add_subnode
                0x000000008170b7e4       0x40 common/built-in.o
                0x000000008170b7e4                fdt_find_or_add_subnode
 .text.fdt_root
                0x000000008170b824       0x5c common/built-in.o
                0x000000008170b824                fdt_root
 .text.fdt_initrd
                0x000000008170b880      0x16c common/built-in.o
                0x000000008170b880                fdt_initrd
 .text.fdt_chosen
                0x000000008170b9ec       0x94 common/built-in.o
                0x000000008170b9ec                fdt_chosen
 .text.do_fixup_by_path
                0x000000008170ba80       0x30 common/built-in.o
                0x000000008170ba80                do_fixup_by_path
 .text.fdt_fixup_memory_banks
                0x000000008170bab0      0x1a8 common/built-in.o
                0x000000008170bab0                fdt_fixup_memory_banks
 .text.fdt_fixup_memory
                0x000000008170bc58       0x12 common/built-in.o
                0x000000008170bc58                fdt_fixup_memory
 *fill*         0x000000008170bc6a        0x2 
 .text.fdt_fixup_ethernet
                0x000000008170bc6c      0x108 common/built-in.o
                0x000000008170bc6c                fdt_fixup_ethernet
 .text.fdt_shrink_to_minimum
                0x000000008170bd74       0xb4 common/built-in.o
                0x000000008170bd74                fdt_shrink_to_minimum
 .text.fdt_translate_address
                0x000000008170be28      0x1ac common/built-in.o
                0x000000008170be28                fdt_translate_address
 .text.fdt_overlay_apply_verbose
                0x000000008170bfd4       0x4c common/built-in.o
                0x000000008170bfd4                fdt_overlay_apply_verbose
 .text.miiphy_get_dev_by_name
                0x000000008170c020       0x3c common/built-in.o
                0x000000008170c020                miiphy_get_dev_by_name
 .text.miiphy_init
                0x000000008170c05c       0x18 common/built-in.o
                0x000000008170c05c                miiphy_init
 .text.miiphy_set_current_dev
                0x000000008170c074       0x30 common/built-in.o
                0x000000008170c074                miiphy_set_current_dev
 .text.miiphy_get_active_dev
                0x000000008170c0a4       0x38 common/built-in.o
 .text.miiphy_get_current_dev
                0x000000008170c0dc       0x14 common/built-in.o
                0x000000008170c0dc                miiphy_get_current_dev
 .text.miiphy_read
                0x000000008170c0f0       0x32 common/built-in.o
                0x000000008170c0f0                miiphy_read
 .text.miiphy_write
                0x000000008170c122       0x32 common/built-in.o
                0x000000008170c122                miiphy_write
 .text.miiphy_listdev
                0x000000008170c154       0x58 common/built-in.o
                0x000000008170c154                miiphy_listdev
 .text.miiphy_info
                0x000000008170c1ac       0x68 common/built-in.o
                0x000000008170c1ac                miiphy_info
 .text.miiphy_speed
                0x000000008170c214       0x94 common/built-in.o
                0x000000008170c214                miiphy_speed
 .text.miiphy_duplex
                0x000000008170c2a8       0x90 common/built-in.o
                0x000000008170c2a8                miiphy_duplex
 .text.miiphy_is_1000base_x
                0x000000008170c338        0x4 common/built-in.o
                0x000000008170c338                miiphy_is_1000base_x
 .text.usb_set_maxpacket_ep
                0x000000008170c33c       0x68 common/built-in.o
 .text.usb_submit_int_msg
                0x000000008170c3a4       0x18 common/built-in.o
                0x000000008170c3a4                usb_submit_int_msg
 .text.usb_control_msg
                0x000000008170c3bc       0x88 common/built-in.o
                0x000000008170c3bc                usb_control_msg
 .text.usb_get_descriptor
                0x000000008170c444       0x48 common/built-in.o
 .text.get_descriptor_len
                0x000000008170c48c       0x70 common/built-in.o
 .text.usb_setup_descriptor
                0x000000008170c4fc       0x90 common/built-in.o
 .text.usb_get_string
                0x000000008170c58c       0x58 common/built-in.o
 .text.usb_string_sub
                0x000000008170c5e4       0xa8 common/built-in.o
 .text.usb_bulk_msg
                0x000000008170c68c       0x5c common/built-in.o
                0x000000008170c68c                usb_bulk_msg
 .text.usb_maxpacket
                0x000000008170c6e8       0x16 common/built-in.o
                0x000000008170c6e8                usb_maxpacket
 .text.usb_clear_halt
                0x000000008170c6fe       0x64 common/built-in.o
                0x000000008170c6fe                usb_clear_halt
 *fill*         0x000000008170c762        0x2 
 .text.usb_get_configuration_len
                0x000000008170c764       0x5c common/built-in.o
                0x000000008170c764                usb_get_configuration_len
 .text.usb_get_configuration_no
                0x000000008170c7c0       0x28 common/built-in.o
                0x000000008170c7c0                usb_get_configuration_no
 .text.usb_set_interface
                0x000000008170c7e8       0x94 common/built-in.o
                0x000000008170c7e8                usb_set_interface
 .text.usb_set_protocol
                0x000000008170c87c       0x3e common/built-in.o
                0x000000008170c87c                usb_set_protocol
 .text.usb_set_idle
                0x000000008170c8ba       0x42 common/built-in.o
                0x000000008170c8ba                usb_set_idle
 .text.usb_string
                0x000000008170c8fc       0xb8 common/built-in.o
                0x000000008170c8fc                usb_string
 .text.usb_select_config
                0x000000008170c9b4      0x350 common/built-in.o
                0x000000008170c9b4                usb_select_config
 .text.usb_setup_device
                0x000000008170cd04       0xb8 common/built-in.o
                0x000000008170cd04                usb_setup_device
 .text.usb_device_has_child_on_port
                0x000000008170cdbc        0x4 common/built-in.o
                0x000000008170cdbc                usb_device_has_child_on_port
 .text.usb_set_port_feature
                0x000000008170cdc0       0x3e common/built-in.o
 .text.usb_clear_port_feature
                0x000000008170cdfe       0x3e common/built-in.o
 .text.usb_get_hub_descriptor
                0x000000008170ce3c       0x4c common/built-in.o
 .text.usb_hub_reset_devices
                0x000000008170ce88        0x2 common/built-in.o
                0x000000008170ce88                usb_hub_reset_devices
 .text.usb_hub_is_root_hub
                0x000000008170ce8a       0x16 common/built-in.o
                0x000000008170ce8a                usb_hub_is_root_hub
 .text.usb_get_port_status
                0x000000008170cea0       0x88 common/built-in.o
                0x000000008170cea0                usb_get_port_status
 .text.usb_hub_port_connect_change
                0x000000008170cf28      0x110 common/built-in.o
                0x000000008170cf28                usb_hub_port_connect_change
 .text.usb_hub_configure
                0x000000008170d038      0x438 common/built-in.o
 .text.usb_hub_scan
                0x000000008170d470       0x12 common/built-in.o
                0x000000008170d470                usb_hub_scan
 .text.usb_hub_post_probe
                0x000000008170d482        0xe common/built-in.o
 .text.usb_stor_irq
                0x000000008170d490       0x14 common/built-in.o
 .text.usb_stor_BBB_reset
                0x000000008170d4a4       0xc8 common/built-in.o
 .text.usb_stor_CB_reset
                0x000000008170d56c       0xa0 common/built-in.o
 .text.usb_stor_BBB_clear_endpt_stall.isra.0
                0x000000008170d60c       0x38 common/built-in.o
 .text.usb_stor_BBB_transport
                0x000000008170d644      0x1e4 common/built-in.o
 .text.usb_stor_CB_comdat
                0x000000008170d828      0x168 common/built-in.o
 .text.usb_stor_CBI_get_status.isra.2
                0x000000008170d990       0x94 common/built-in.o
 .text.usb_stor_CB_transport
                0x000000008170da24      0x170 common/built-in.o
 .text.usb_request_sense.constprop.11
                0x000000008170db94       0x50 common/built-in.o
 .text.usb_stor_read
                0x000000008170dbe4      0x114 common/built-in.o
 .text.usb_stor_write
                0x000000008170dcf8      0x114 common/built-in.o
 .text.usb_stor_info
                0x000000008170de0c       0x50 common/built-in.o
                0x000000008170de0c                usb_stor_info
 .text.usb_stor_reset
                0x000000008170de5c        0xc common/built-in.o
                0x000000008170de5c                usb_stor_reset
 .text.usb_stor_scan
                0x000000008170de68       0x34 common/built-in.o
                0x000000008170de68                usb_stor_scan
 .text.usb_storage_probe
                0x000000008170de9c      0x1ac common/built-in.o
                0x000000008170de9c                usb_storage_probe
 .text.usb_stor_get_info
                0x000000008170e048      0x278 common/built-in.o
                0x000000008170e048                usb_stor_get_info
 .text.usb_mass_storage_probe
                0x000000008170e2c0      0x144 common/built-in.o
 .text.menu_display_statusline
                0x000000008170e404        0x2 common/built-in.o
                0x000000008170e404                menu_display_statusline
 .text.menu_default_set
                0x000000008170e406       0x46 common/built-in.o
                0x000000008170e406                menu_default_set
 .text.menu_get_choice
                0x000000008170e44c      0x128 common/built-in.o
                0x000000008170e44c                menu_get_choice
 .text.menu_item_add
                0x000000008170e574       0x7a common/built-in.o
                0x000000008170e574                menu_item_add
 .text.menu_create
                0x000000008170e5ee       0x50 common/built-in.o
                0x000000008170e5ee                menu_create
 .text.menu_destroy
                0x000000008170e63e       0x44 common/built-in.o
                0x000000008170e63e                menu_destroy
 *fill*         0x000000008170e682        0x2 
 .text.usb_kbd_remove
                0x000000008170e684       0x5c common/built-in.o
 .text.usb_kbd_translate.part.0
                0x000000008170e6e0       0xd8 common/built-in.o
 .text.usb_kbd_probe
                0x000000008170e7b8      0x164 common/built-in.o
 .text.usb_kbd_irq_worker
                0x000000008170e91c      0x14e common/built-in.o
 *fill*         0x000000008170ea6a        0x2 
 .text.usb_kbd_getc
                0x000000008170ea6c       0x58 common/built-in.o
 .text.usb_kbd_testc
                0x000000008170eac4       0x70 common/built-in.o
 .text.usb_kbd_irq
                0x000000008170eb34       0x30 common/built-in.o
 .text.delete_char.part.0
                0x000000008170eb64       0x80 common/built-in.o
 .text.cread_add_char
                0x000000008170ebe4       0x88 common/built-in.o
 .text.cli_readline_into_buffer
                0x000000008170ec6c      0x640 common/built-in.o
                0x000000008170ec6c                cli_readline_into_buffer
 .text.cli_readline
                0x000000008170f2ac       0x18 common/built-in.o
                0x000000008170f2ac                cli_readline
 .text.cli_simple_process_macros
                0x000000008170f2c4      0x11c common/built-in.o
                0x000000008170f2c4                cli_simple_process_macros
 .text.console_setfile
                0x000000008170f3e0       0x78 common/built-in.o
 .text.pre_console_putc
                0x000000008170f458       0x1c common/built-in.o
 .text.fgetc    0x000000008170f474       0x24 common/built-in.o
                0x000000008170f474                fgetc
 .text.getc     0x000000008170f498       0x26 common/built-in.o
                0x000000008170f498                getc
 *fill*         0x000000008170f4be        0x2 
 .text.ftstc    0x000000008170f4c0       0x24 common/built-in.o
                0x000000008170f4c0                ftstc
 .text.tstc     0x000000008170f4e4       0x26 common/built-in.o
                0x000000008170f4e4                tstc
 *fill*         0x000000008170f50a        0x2 
 .text.fputc    0x000000008170f50c       0x1c common/built-in.o
                0x000000008170f50c                fputc
 .text.putc     0x000000008170f528       0x36 common/built-in.o
                0x000000008170f528                putc
 *fill*         0x000000008170f55e        0x2 
 .text.fputs    0x000000008170f560       0x1c common/built-in.o
                0x000000008170f560                fputs
 .text.puts     0x000000008170f57c       0x4a common/built-in.o
                0x000000008170f57c                puts
 *fill*         0x000000008170f5c6        0x2 
 .text.print_pre_console_buffer
                0x000000008170f5c8       0x98 common/built-in.o
 .text.ctrlc    0x000000008170f660       0x40 common/built-in.o
                0x000000008170f660                ctrlc
 .text.disable_ctrlc
                0x000000008170f6a0       0x10 common/built-in.o
                0x000000008170f6a0                disable_ctrlc
 .text.had_ctrlc
                0x000000008170f6b0        0xc common/built-in.o
                0x000000008170f6b0                had_ctrlc
 .text.clear_ctrlc
                0x000000008170f6bc        0xc common/built-in.o
                0x000000008170f6bc                clear_ctrlc
 .text.search_device
                0x000000008170f6c8       0x24 common/built-in.o
                0x000000008170f6c8                search_device
 .text.console_assign
                0x000000008170f6ec       0x30 common/built-in.o
                0x000000008170f6ec                console_assign
 .text.on_console
                0x000000008170f71c       0x80 common/built-in.o
 .text.console_init_f
                0x000000008170f79c       0x1a common/built-in.o
                0x000000008170f79c                console_init_f
 *fill*         0x000000008170f7b6        0x2 
 .text.stdio_print_current_devices
                0x000000008170f7b8       0x84 common/built-in.o
                0x000000008170f7b8                stdio_print_current_devices
 .text.console_init_r
                0x000000008170f83c       0xa0 common/built-in.o
                0x000000008170f83c                console_init_r
 .text.sbrk     0x000000008170f8dc       0x48 common/built-in.o
                0x000000008170f8dc                sbrk
 .text.mem_malloc_init
                0x000000008170f924       0x2c common/built-in.o
                0x000000008170f924                mem_malloc_init
 .text.malloc_trim
                0x000000008170f950       0x8c common/built-in.o
                0x000000008170f950                malloc_trim
 .text.free     0x000000008170f9dc      0x164 common/built-in.o
                0x000000008170f9dc                free
 .text.malloc   0x000000008170fb40      0x434 common/built-in.o
                0x000000008170fb40                malloc
 .text.calloc   0x000000008170ff74       0xbc common/built-in.o
                0x000000008170ff74                calloc
 .text.realloc  0x0000000081710030      0x2e8 common/built-in.o
                0x0000000081710030                realloc
 .text.memalign
                0x0000000081710318      0x102 common/built-in.o
                0x0000000081710318                memalign
 .text.initf_malloc
                0x000000008171041a       0x20 common/built-in.o
                0x000000008171041a                initf_malloc
 .text.malloc_simple
                0x000000008171043a       0x32 common/built-in.o
                0x000000008171043a                malloc_simple
 .text.on_loadaddr
                0x000000008171046c       0x28 common/built-in.o
 .text.image_check_hcrc
                0x0000000081710494       0x4a common/built-in.o
                0x0000000081710494                image_check_hcrc
 .text.image_check_dcrc
                0x00000000817104de       0x52 common/built-in.o
                0x00000000817104de                image_check_dcrc
 .text.image_multi_count
                0x0000000081710530       0x12 common/built-in.o
                0x0000000081710530                image_multi_count
 .text.image_multi_getimg
                0x0000000081710542       0x94 common/built-in.o
                0x0000000081710542                image_multi_getimg
 *fill*         0x00000000817105d6        0x2 
 .text.env_get_bootm_low
                0x00000000817105d8       0x28 common/built-in.o
                0x00000000817105d8                env_get_bootm_low
 .text.env_get_bootm_size
                0x0000000081710600       0x4c common/built-in.o
                0x0000000081710600                env_get_bootm_size
 .text.env_get_bootm_mapsize
                0x000000008171064c       0x28 common/built-in.o
                0x000000008171064c                env_get_bootm_mapsize
 .text.memmove_wd
                0x0000000081710674       0x12 common/built-in.o
                0x0000000081710674                memmove_wd
 *fill*         0x0000000081710686        0x2 
 .text.genimg_print_size
                0x0000000081710688       0x28 common/built-in.o
                0x0000000081710688                genimg_print_size
 .text.get_table_entry
                0x00000000817106b0       0x12 common/built-in.o
                0x00000000817106b0                get_table_entry
 .text.get_table_entry_name
                0x00000000817106c2       0x1c common/built-in.o
                0x00000000817106c2                get_table_entry_name
 *fill*         0x00000000817106de        0x2 
 .text.genimg_get_os_name
                0x00000000817106e0       0x1c common/built-in.o
                0x00000000817106e0                genimg_get_os_name
 .text.genimg_get_arch_name
                0x00000000817106fc       0x1c common/built-in.o
                0x00000000817106fc                genimg_get_arch_name
 .text.genimg_get_type_name
                0x0000000081710718       0x1c common/built-in.o
                0x0000000081710718                genimg_get_type_name
 .text.genimg_get_comp_name
                0x0000000081710734       0x1c common/built-in.o
                0x0000000081710734                genimg_get_comp_name
 .text.image_print_contents
                0x0000000081710750      0x178 common/built-in.o
                0x0000000081710750                image_print_contents
 .text.genimg_get_kernel_addr_fit
                0x00000000817108c8       0x20 common/built-in.o
                0x00000000817108c8                genimg_get_kernel_addr_fit
 .text.genimg_get_kernel_addr
                0x00000000817108e8       0x1c common/built-in.o
                0x00000000817108e8                genimg_get_kernel_addr
 .text.genimg_get_format
                0x0000000081710904       0x40 common/built-in.o
                0x0000000081710904                genimg_get_format
 .text.genimg_has_config
                0x0000000081710944        0x4 common/built-in.o
                0x0000000081710944                genimg_has_config
 .text.boot_get_ramdisk
                0x0000000081710948      0x1e0 common/built-in.o
                0x0000000081710948                boot_get_ramdisk
 .text.boot_ramdisk_high
                0x0000000081710b28       0xd4 common/built-in.o
                0x0000000081710b28                boot_ramdisk_high
 .text.boot_get_setup
                0x0000000081710bfc        0x6 common/built-in.o
                0x0000000081710bfc                boot_get_setup
 .text.image_setup_linux
                0x0000000081710c02       0x42 common/built-in.o
                0x0000000081710c02                image_setup_linux
 .text.fdt_error
                0x0000000081710c44       0x28 common/built-in.o
 .text.boot_fdt_add_mem_rsv_regions
                0x0000000081710c6c       0x60 common/built-in.o
                0x0000000081710c6c                boot_fdt_add_mem_rsv_regions
 .text.boot_relocate_fdt
                0x0000000081710ccc      0x13c common/built-in.o
                0x0000000081710ccc                boot_relocate_fdt
 .text.boot_get_fdt
                0x0000000081710e08      0x21c common/built-in.o
                0x0000000081710e08                boot_get_fdt
 .text.ft_verify_fdt
                0x0000000081711024        0x4 common/built-in.o
                0x0000000081711024                ft_verify_fdt
 .text.image_setup_libfdt
                0x0000000081711028      0x10c common/built-in.o
                0x0000000081711028                image_setup_libfdt
 .text.get_ram_size
                0x0000000081711134       0x94 common/built-in.o
                0x0000000081711134                get_ram_size
 .text.get_effective_memsize
                0x00000000817111c8        0xc common/built-in.o
                0x00000000817111c8                get_effective_memsize
 .text.nulldev_putc
                0x00000000817111d4        0x2 common/built-in.o
 .text.nulldev_puts
                0x00000000817111d6        0x2 common/built-in.o
 .text.nulldev_input
                0x00000000817111d8        0x4 common/built-in.o
 .text.stdio_serial_tstc
                0x00000000817111dc        0xe common/built-in.o
 .text.stdio_serial_getc
                0x00000000817111ea        0xe common/built-in.o
 .text.stdio_serial_puts
                0x00000000817111f8       0x10 common/built-in.o
 .text.stdio_serial_putc
                0x0000000081711208       0x10 common/built-in.o
 .text.stdio_get_list
                0x0000000081711218        0xc common/built-in.o
                0x0000000081711218                stdio_get_list
 .text.stdio_get_by_name
                0x0000000081711224       0x3c common/built-in.o
                0x0000000081711224                stdio_get_by_name
 .text.stdio_clone
                0x0000000081711260       0x28 common/built-in.o
                0x0000000081711260                stdio_clone
 .text.stdio_register_dev
                0x0000000081711288       0x3c common/built-in.o
                0x0000000081711288                stdio_register_dev
 .text.stdio_register
                0x00000000817112c4       0x10 common/built-in.o
                0x00000000817112c4                stdio_register
 .text.stdio_deregister_dev
                0x00000000817112d4       0xa4 common/built-in.o
                0x00000000817112d4                stdio_deregister_dev
 .text.stdio_init_tables
                0x0000000081711378       0x14 common/built-in.o
                0x0000000081711378                stdio_init_tables
 .text.stdio_add_devices
                0x000000008171138c       0xc8 common/built-in.o
                0x000000008171138c                stdio_add_devices
 .text.run_command
                0x0000000081711454       0x18 common/built-in.o
                0x0000000081711454                run_command
 .text.run_command_list
                0x000000008171146c       0x50 common/built-in.o
                0x000000008171146c                run_command_list
 .text.do_run   0x00000000817114bc       0x4c common/built-in.o
                0x00000000817114bc                do_run
 .text.cli_process_fdt
                0x0000000081711508       0x38 common/built-in.o
                0x0000000081711508                cli_process_fdt
 .text.cli_secure_boot_cmd
                0x0000000081711540       0x54 common/built-in.o
                0x0000000081711540                cli_secure_boot_cmd
 .text.cli_loop
                0x0000000081711594        0xa common/built-in.o
                0x0000000081711594                cli_loop
 .text.cli_init
                0x000000008171159e        0xe common/built-in.o
                0x000000008171159e                cli_init
 .text.find_cmd_tbl
                0x00000000817115ac       0x6c common/built-in.o
                0x00000000817115ac                find_cmd_tbl
 .text.find_cmd
                0x0000000081711618       0x24 common/built-in.o
                0x0000000081711618                find_cmd
 .text.cmd_usage
                0x000000008171163c       0x40 common/built-in.o
                0x000000008171163c                cmd_usage
 .text._do_help
                0x000000008171167c      0x100 common/built-in.o
                0x000000008171167c                _do_help
 .text.var_complete
                0x000000008171177c       0x4c common/built-in.o
                0x000000008171177c                var_complete
 .text.cmd_auto_complete
                0x00000000817117c8      0x2dc common/built-in.o
                0x00000000817117c8                cmd_auto_complete
 .text.cmd_get_data_size
                0x0000000081711aa4       0x38 common/built-in.o
                0x0000000081711aa4                cmd_get_data_size
 .text.cmd_process
                0x0000000081711adc       0x98 common/built-in.o
                0x0000000081711adc                cmd_process
 .text.cmd_process_error
                0x0000000081711b74       0x18 common/built-in.o
                0x0000000081711b74                cmd_process_error
 .text.hex1_bin
                0x0000000081711b8c       0x2c common/built-in.o
 .text.hex2_bin
                0x0000000081711bb8       0x24 common/built-in.o
 .text.srec_decode
                0x0000000081711bdc      0x18c common/built-in.o
                0x0000000081711bdc                srec_decode
 .text.CYGACC_COMM_IF_GETC_TIMEOUT.isra.0
                0x0000000081711d68       0x34 common/built-in.o
 .text.xyzModem_flush
                0x0000000081711d9c       0x10 common/built-in.o
 .text.xyzModem_get_hdr
                0x0000000081711dac      0x180 common/built-in.o
 .text.xyzModem_stream_open
                0x0000000081711f2c      0x1ac common/built-in.o
                0x0000000081711f2c                xyzModem_stream_open
 .text.xyzModem_stream_read
                0x00000000817120d8      0x1d8 common/built-in.o
                0x00000000817120d8                xyzModem_stream_read
 .text.xyzModem_stream_close
                0x00000000817122b0       0x4c common/built-in.o
                0x00000000817122b0                xyzModem_stream_close
 .text.xyzModem_stream_terminate
                0x00000000817122fc       0x70 common/built-in.o
                0x00000000817122fc                xyzModem_stream_terminate
 .text.xyzModem_error
                0x000000008171236c       0x1c common/built-in.o
                0x000000008171236c                xyzModem_error
 .text.blk_get_dev
                0x0000000081712388       0x24 disk/built-in.o
                0x0000000081712388                blk_get_dev
 .text.dev_print
                0x00000000817123ac      0x170 disk/built-in.o
                0x00000000817123ac                dev_print
 .text.part_init
                0x000000008171251c       0x3c disk/built-in.o
                0x000000008171251c                part_init
 .text.part_print
                0x0000000081712558       0xc4 disk/built-in.o
                0x0000000081712558                part_print
 .text.part_get_info
                0x000000008171261c       0x48 disk/built-in.o
                0x000000008171261c                part_get_info
 .text.part_get_info_whole_disk
                0x0000000081712664       0x40 disk/built-in.o
                0x0000000081712664                part_get_info_whole_disk
 .text.blk_get_device_by_str
                0x00000000817126a4       0xd4 disk/built-in.o
                0x00000000817126a4                blk_get_device_by_str
 .text.blk_get_device_part_str
                0x0000000081712778      0x24c disk/built-in.o
                0x0000000081712778                blk_get_device_part_str
 .text.part_set_generic_name
                0x00000000817129c4       0x3c disk/built-in.o
                0x00000000817129c4                part_set_generic_name
 .text.test_block_type
                0x0000000081712a00       0x58 disk/built-in.o
 .text.print_partition_extended
                0x0000000081712a58      0x1ac disk/built-in.o
 .text.part_print_dos
                0x0000000081712c04       0x20 disk/built-in.o
                0x0000000081712c04                part_print_dos
 .text.part_test_dos
                0x0000000081712c24       0x52 disk/built-in.o
 *fill*         0x0000000081712c76        0x2 
 .text.part_get_info_extended
                0x0000000081712c78      0x20c disk/built-in.o
 .text.part_get_info_dos
                0x0000000081712e84       0x18 disk/built-in.o
                0x0000000081712e84                part_get_info_dos
 .text.iso_dread
                0x0000000081712e9c       0x26 disk/built-in.o
                0x0000000081712e9c                iso_dread
 *fill*         0x0000000081712ec2        0x2 
 .text.part_get_info_iso_verb
                0x0000000081712ec4      0x26c disk/built-in.o
                0x0000000081712ec4                part_get_info_iso_verb
 .text.part_test_iso
                0x0000000081713130       0x12 disk/built-in.o
 *fill*         0x0000000081713142        0x2 
 .text.part_print_iso
                0x0000000081713144       0x60 disk/built-in.o
 .text.part_get_info_iso
                0x00000000817131a4        0xa disk/built-in.o
 *fill*         0x00000000817131ae        0x2 
 .text.print_efiname
                0x00000000817131b0       0x3c disk/built-in.o
 .text.part_test_efi
                0x00000000817131ec       0x90 disk/built-in.o
 .text.validate_gpt_entries
                0x000000008171327c       0xa0 disk/built-in.o
 .text.validate_gpt_header
                0x000000008171331c      0x1b8 disk/built-in.o
 .text.is_gpt_valid
                0x00000000817134d4      0x1f0 disk/built-in.o
 .text.is_pte_valid
                0x00000000817136c4       0x44 disk/built-in.o
 .text.part_print_efi
                0x0000000081713708      0x228 disk/built-in.o
                0x0000000081713708                part_print_efi
 .text.part_get_info_efi
                0x0000000081713930      0x188 disk/built-in.o
                0x0000000081713930                part_get_info_efi
 .text.get_disk_guid
                0x0000000081713ab8       0xb0 disk/built-in.o
                0x0000000081713ab8                get_disk_guid
 .text.write_gpt_table
                0x0000000081713b68      0x3cc disk/built-in.o
                0x0000000081713b68                write_gpt_table
 .text.gpt_fill_pte
                0x0000000081713f34      0x2a4 disk/built-in.o
                0x0000000081713f34                gpt_fill_pte
 .text.gpt_fill_header
                0x00000000817141d8      0x188 disk/built-in.o
                0x00000000817141d8                gpt_fill_header
 .text.gpt_restore
                0x0000000081714360       0xd4 disk/built-in.o
                0x0000000081714360                gpt_restore
 .text.gpt_verify_headers
                0x0000000081714434       0x5c disk/built-in.o
                0x0000000081714434                gpt_verify_headers
 .text.gpt_verify_partitions
                0x0000000081714490      0x1a8 disk/built-in.o
                0x0000000081714490                gpt_verify_partitions
 .text.device_bind_common.isra.0
                0x0000000081714638      0x20c drivers/built-in.o
 .text.alloc_priv
                0x0000000081714844       0x42 drivers/built-in.o
 .text.device_bind_with_driver_data
                0x0000000081714886       0x20 drivers/built-in.o
                0x0000000081714886                device_bind_with_driver_data
 .text.device_bind
                0x00000000817148a6       0x20 drivers/built-in.o
                0x00000000817148a6                device_bind
 .text.device_bind_by_name
                0x00000000817148c6       0x4c drivers/built-in.o
                0x00000000817148c6                device_bind_by_name
 *fill*         0x0000000081714912        0x2 
 .text.device_probe
                0x0000000081714914      0x140 drivers/built-in.o
                0x0000000081714914                device_probe
 .text.dev_get_platdata
                0x0000000081714a54       0x28 drivers/built-in.o
                0x0000000081714a54                dev_get_platdata
 .text.dev_get_parent_platdata
                0x0000000081714a7c       0x28 drivers/built-in.o
                0x0000000081714a7c                dev_get_parent_platdata
 .text.dev_get_uclass_platdata
                0x0000000081714aa4       0x28 drivers/built-in.o
                0x0000000081714aa4                dev_get_uclass_platdata
 .text.dev_get_priv
                0x0000000081714acc       0x28 drivers/built-in.o
                0x0000000081714acc                dev_get_priv
 .text.dev_get_uclass_priv
                0x0000000081714af4       0x28 drivers/built-in.o
                0x0000000081714af4                dev_get_uclass_priv
 .text.dev_get_parent_priv
                0x0000000081714b1c       0x28 drivers/built-in.o
                0x0000000081714b1c                dev_get_parent_priv
 .text.device_get_child
                0x0000000081714b44       0x3c drivers/built-in.o
                0x0000000081714b44                device_get_child
 .text.device_find_first_child
                0x0000000081714b80       0x14 drivers/built-in.o
                0x0000000081714b80                device_find_first_child
 .text.device_find_next_child
                0x0000000081714b94       0x18 drivers/built-in.o
                0x0000000081714b94                device_find_next_child
 .text.dev_get_driver_data
                0x0000000081714bac        0x4 drivers/built-in.o
                0x0000000081714bac                dev_get_driver_data
 .text.device_get_uclass_id
                0x0000000081714bb0        0x8 drivers/built-in.o
                0x0000000081714bb0                device_get_uclass_id
 .text.device_has_active_children
                0x0000000081714bb8       0x30 drivers/built-in.o
                0x0000000081714bb8                device_has_active_children
 .text.device_is_last_sibling
                0x0000000081714be8       0x14 drivers/built-in.o
                0x0000000081714be8                device_is_last_sibling
 .text.devfdt_get_addr_index
                0x0000000081714bfc       0x78 drivers/built-in.o
                0x0000000081714bfc                devfdt_get_addr_index
 .text.devfdt_get_addr
                0x0000000081714c74       0x10 drivers/built-in.o
                0x0000000081714c74                devfdt_get_addr
 .text.lists_driver_lookup_name
                0x0000000081714c84       0x38 drivers/built-in.o
                0x0000000081714c84                lists_driver_lookup_name
 .text.lists_uclass_lookup
                0x0000000081714cbc       0x20 drivers/built-in.o
                0x0000000081714cbc                lists_uclass_lookup
 .text.lists_bind_drivers
                0x0000000081714cdc       0x58 drivers/built-in.o
                0x0000000081714cdc                lists_bind_drivers
 .text.device_bind_driver_to_node
                0x0000000081714d34       0x36 drivers/built-in.o
                0x0000000081714d34                device_bind_driver_to_node
 .text.device_bind_driver
                0x0000000081714d6a       0x1a drivers/built-in.o
                0x0000000081714d6a                device_bind_driver
 .text.lists_bind_fdt
                0x0000000081714d84       0xe0 drivers/built-in.o
                0x0000000081714d84                lists_bind_fdt
 .text.dm_scan_fdt_node
                0x0000000081714e64       0x78 drivers/built-in.o
 .text.dm_root  0x0000000081714edc       0x24 drivers/built-in.o
                0x0000000081714edc                dm_root
 .text.dm_get_translation_offset
                0x0000000081714f00       0x14 drivers/built-in.o
                0x0000000081714f00                dm_get_translation_offset
 .text.dm_init  0x0000000081714f14       0x48 drivers/built-in.o
                0x0000000081714f14                dm_init
 .text.dm_remove_devices_flags
                0x0000000081714f5c       0x1a drivers/built-in.o
                0x0000000081714f5c                dm_remove_devices_flags
 *fill*         0x0000000081714f76        0x2 
 .text.dm_scan_platdata
                0x0000000081714f78       0x24 drivers/built-in.o
                0x0000000081714f78                dm_scan_platdata
 .text.dm_scan_fdt_dev
                0x0000000081714f9c       0x26 drivers/built-in.o
                0x0000000081714f9c                dm_scan_fdt_dev
 .text.dm_scan_fdt
                0x0000000081714fc2       0x1c drivers/built-in.o
                0x0000000081714fc2                dm_scan_fdt
 *fill*         0x0000000081714fde        0x2 
 .text.dm_extended_scan_fdt
                0x0000000081714fe0       0x38 drivers/built-in.o
                0x0000000081714fe0                dm_extended_scan_fdt
 .text.dm_scan_other
                0x0000000081715018        0x4 drivers/built-in.o
                0x0000000081715018                dm_scan_other
 .text.dm_init_and_scan
                0x000000008171501c       0x36 drivers/built-in.o
                0x000000008171501c                dm_init_and_scan
 .text.uclass_find
                0x0000000081715052       0x36 drivers/built-in.o
                0x0000000081715052                uclass_find
 .text.uclass_get
                0x0000000081715088       0xb4 drivers/built-in.o
                0x0000000081715088                uclass_get
 .text.uclass_find_device
                0x000000008171513c       0x50 drivers/built-in.o
                0x000000008171513c                uclass_find_device
 .text.uclass_find_first_device
                0x000000008171518c       0x2e drivers/built-in.o
                0x000000008171518c                uclass_find_first_device
 .text.uclass_find_next_device
                0x00000000817151ba       0x18 drivers/built-in.o
                0x00000000817151ba                uclass_find_next_device
 .text.uclass_find_device_by_seq
                0x00000000817151d2       0x56 drivers/built-in.o
                0x00000000817151d2                uclass_find_device_by_seq
 .text.uclass_find_device_by_of_offset
                0x0000000081715228       0x4c drivers/built-in.o
                0x0000000081715228                uclass_find_device_by_of_offset
 .text.uclass_find_device_by_ofnode
                0x0000000081715274       0x4c drivers/built-in.o
                0x0000000081715274                uclass_find_device_by_ofnode
 .text.uclass_get_device_tail
                0x00000000817152c0       0x22 drivers/built-in.o
                0x00000000817152c0                uclass_get_device_tail
 .text.uclass_get_device
                0x00000000817152e2       0x26 drivers/built-in.o
                0x00000000817152e2                uclass_get_device
 .text.uclass_get_device_by_seq
                0x0000000081715308       0x3c drivers/built-in.o
                0x0000000081715308                uclass_get_device_by_seq
 .text.uclass_get_device_by_of_offset
                0x0000000081715344       0x26 drivers/built-in.o
                0x0000000081715344                uclass_get_device_by_of_offset
 .text.uclass_get_device_by_ofnode
                0x000000008171536a       0x26 drivers/built-in.o
                0x000000008171536a                uclass_get_device_by_ofnode
 .text.uclass_first_device
                0x0000000081715390       0x2e drivers/built-in.o
                0x0000000081715390                uclass_first_device
 .text.uclass_next_device
                0x00000000817153be       0x32 drivers/built-in.o
                0x00000000817153be                uclass_next_device
 .text.uclass_bind_device
                0x00000000817153f0       0x46 drivers/built-in.o
                0x00000000817153f0                uclass_bind_device
 .text.uclass_unbind_device
                0x0000000081715436       0x2e drivers/built-in.o
                0x0000000081715436                uclass_unbind_device
 .text.uclass_resolve_seq
                0x0000000081715464       0x74 drivers/built-in.o
                0x0000000081715464                uclass_resolve_seq
 .text.uclass_pre_probe_device
                0x00000000817154d8       0x36 drivers/built-in.o
                0x00000000817154d8                uclass_pre_probe_device
 .text.uclass_post_probe_device
                0x000000008171550e       0x1c drivers/built-in.o
                0x000000008171550e                uclass_post_probe_device
 .text.uclass_pre_remove_device
                0x000000008171552a       0x1c drivers/built-in.o
                0x000000008171552a                uclass_pre_remove_device
 .text.dm_warn  0x0000000081715546       0x16 drivers/built-in.o
                0x0000000081715546                dm_warn
 .text.dm_fdt_pre_reloc
                0x000000008171555c       0x40 drivers/built-in.o
                0x000000008171555c                dm_fdt_pre_reloc
 .text.device_unbind
                0x000000008171559c       0xc0 drivers/built-in.o
                0x000000008171559c                device_unbind
 .text.device_free
                0x000000008171565c       0x56 drivers/built-in.o
                0x000000008171565c                device_free
 *fill*         0x00000000817156b2        0x2 
 .text.device_remove
                0x00000000817156b4       0xf8 drivers/built-in.o
                0x00000000817156b4                device_remove
 .text.simple_bus_post_bind
                0x00000000817157ac       0x40 drivers/built-in.o
 .text.show_devices
                0x00000000817157ec       0xa4 drivers/built-in.o
 .text.dm_dump_all
                0x0000000081715890       0x34 drivers/built-in.o
                0x0000000081715890                dm_dump_all
 .text.dm_dump_uclass
                0x00000000817158c4       0x98 drivers/built-in.o
                0x00000000817158c4                dm_dump_uclass
 .text.ofnode_read_u32
                0x000000008171595c       0x52 drivers/built-in.o
                0x000000008171595c                ofnode_read_u32
 .text.ofnode_read_u32_default
                0x00000000817159ae       0x18 drivers/built-in.o
                0x00000000817159ae                ofnode_read_u32_default
 .text.ofnode_read_u32_array
                0x00000000817159c6       0x22 drivers/built-in.o
                0x00000000817159c6                ofnode_read_u32_array
 .text.ofnode_get_name
                0x00000000817159e8       0x14 drivers/built-in.o
                0x00000000817159e8                ofnode_get_name
 .text.ofnode_parse_phandle_with_args
                0x00000000817159fc       0x46 drivers/built-in.o
                0x00000000817159fc                ofnode_parse_phandle_with_args
 .text.ofnode_path
                0x0000000081715a42       0x12 drivers/built-in.o
                0x0000000081715a42                ofnode_path
 .text.ofnode_get_property
                0x0000000081715a54       0x1c drivers/built-in.o
                0x0000000081715a54                ofnode_get_property
 .text.ofnode_read_bool
                0x0000000081715a70       0x14 drivers/built-in.o
                0x0000000081715a70                ofnode_read_bool
 .text.get_desc
                0x0000000081715a84       0x3a drivers/built-in.o
 *fill*         0x0000000081715abe        0x2 
 .text.blk_driver_lookup_type
                0x0000000081715ac0       0x20 drivers/built-in.o
                0x0000000081715ac0                blk_driver_lookup_type
 .text.blk_get_if_type_name
                0x0000000081715ae0        0xe drivers/built-in.o
                0x0000000081715ae0                blk_get_if_type_name
 .text.blk_list_part
                0x0000000081715aee       0x54 drivers/built-in.o
                0x0000000081715aee                blk_list_part
 .text.blk_print_part_devnum
                0x0000000081715b42       0x32 drivers/built-in.o
                0x0000000081715b42                blk_print_part_devnum
 .text.blk_list_devices
                0x0000000081715b74       0x40 drivers/built-in.o
                0x0000000081715b74                blk_list_devices
 .text.blk_print_device_num
                0x0000000081715bb4       0x38 drivers/built-in.o
                0x0000000081715bb4                blk_print_device_num
 .text.blk_show_device
                0x0000000081715bec       0x54 drivers/built-in.o
                0x0000000081715bec                blk_show_device
 .text.blk_get_devnum_by_type
                0x0000000081715c40       0x20 drivers/built-in.o
                0x0000000081715c40                blk_get_devnum_by_type
 .text.blk_dselect_hwpart
                0x0000000081715c60       0x24 drivers/built-in.o
                0x0000000081715c60                blk_dselect_hwpart
 .text.blk_get_devnum_by_typename
                0x0000000081715c84       0x4c drivers/built-in.o
                0x0000000081715c84                blk_get_devnum_by_typename
 .text.blk_read_devnum
                0x0000000081715cd0       0x30 drivers/built-in.o
                0x0000000081715cd0                blk_read_devnum
 .text.blk_write_devnum
                0x0000000081715d00       0x30 drivers/built-in.o
                0x0000000081715d00                blk_write_devnum
 .text.blk_select_hwpart_devnum
                0x0000000081715d30       0x2a drivers/built-in.o
                0x0000000081715d30                blk_select_hwpart_devnum
 .text.mmc_set_ios
                0x0000000081715d5a       0x16 drivers/built-in.o
 .text.mmc_set_capacity
                0x0000000081715d70       0x7a drivers/built-in.o
 .text.board_mmc_getwp
                0x0000000081715dea        0x6 drivers/built-in.o
                0x0000000081715dea                board_mmc_getwp
 .text.mmc_getwp
                0x0000000081715df0       0x24 drivers/built-in.o
                0x0000000081715df0                mmc_getwp
 .text.board_mmc_getcd
                0x0000000081715e14        0x6 drivers/built-in.o
                0x0000000081715e14                board_mmc_getcd
 .text.mmc_send_cmd
                0x0000000081715e1a       0x12 drivers/built-in.o
                0x0000000081715e1a                mmc_send_cmd
 .text.mmc_send_ext_csd
                0x0000000081715e2c       0x32 drivers/built-in.o
 .text.mmc_go_idle
                0x0000000081715e5e       0x38 drivers/built-in.o
 *fill*         0x0000000081715e96        0x2 
 .text.mmc_send_op_cond_iter
                0x0000000081715e98       0x54 drivers/built-in.o
 .text.mmc_send_status
                0x0000000081715eec       0x94 drivers/built-in.o
                0x0000000081715eec                mmc_send_status
 .text.mmc_set_blocklen
                0x0000000081715f80       0x32 drivers/built-in.o
                0x0000000081715f80                mmc_set_blocklen
 *fill*         0x0000000081715fb2        0x2 
 .text.mmc_bread
                0x0000000081715fb4       0xf8 drivers/built-in.o
                0x0000000081715fb4                mmc_bread
 .text.mmc_switch
                0x00000000817160ac       0x4c drivers/built-in.o
                0x00000000817160ac                mmc_switch
 .text.mmc_switch_part
                0x00000000817160f8       0x4c drivers/built-in.o
                0x00000000817160f8                mmc_switch_part
 .text.mmc_hwpart_config
                0x0000000081716144      0x300 drivers/built-in.o
                0x0000000081716144                mmc_hwpart_config
 .text.mmc_getcd
                0x0000000081716444       0x26 drivers/built-in.o
                0x0000000081716444                mmc_getcd
 .text.mmc_set_clock
                0x000000008171646a       0x22 drivers/built-in.o
                0x000000008171646a                mmc_set_clock
 .text.mmc_startup
                0x000000008171648c      0xa78 drivers/built-in.o
 .text.board_mmc_power_init
                0x0000000081716f04        0x2 drivers/built-in.o
                0x0000000081716f04                board_mmc_power_init
 *fill*         0x0000000081716f06        0x2 
 .text.mmc_start_init
                0x0000000081716f08      0x19c drivers/built-in.o
                0x0000000081716f08                mmc_start_init
 .text.mmc_init
                0x00000000817170a4       0xd0 drivers/built-in.o
                0x00000000817170a4                mmc_init
 .text.mmc_set_dsr
                0x0000000081717174        0x6 drivers/built-in.o
                0x0000000081717174                mmc_set_dsr
 .text.cpu_mmc_init
                0x000000008171717a        0x6 drivers/built-in.o
                0x000000008171717a                cpu_mmc_init
 .text.mmc_initialize
                0x0000000081717180       0x40 drivers/built-in.o
                0x0000000081717180                mmc_initialize
 .text.find_mmc_device
                0x00000000817171c0       0x30 drivers/built-in.o
                0x00000000817171c0                find_mmc_device
 .text.mmc_select_hwpartp
                0x00000000817171f0       0x3a drivers/built-in.o
 .text.mmc_get_dev
                0x000000008171722a       0x20 drivers/built-in.o
 *fill*         0x000000008171724a        0x2 
 .text.mmc_get_next_devnum
                0x000000008171724c       0x10 drivers/built-in.o
                0x000000008171724c                mmc_get_next_devnum
 .text.mmc_get_blk_desc
                0x000000008171725c        0x4 drivers/built-in.o
                0x000000008171725c                mmc_get_blk_desc
 .text.get_mmc_num
                0x0000000081717260        0xc drivers/built-in.o
                0x0000000081717260                get_mmc_num
 .text.mmc_do_preinit
                0x000000008171726c       0x24 drivers/built-in.o
                0x000000008171726c                mmc_do_preinit
 .text.mmc_list_init
                0x0000000081717290       0x18 drivers/built-in.o
                0x0000000081717290                mmc_list_init
 .text.mmc_list_add
                0x00000000817172a8       0x14 drivers/built-in.o
                0x00000000817172a8                mmc_list_add
 .text.print_mmc_devices
                0x00000000817172bc       0x80 drivers/built-in.o
                0x00000000817172bc                print_mmc_devices
 .text.mmc_create
                0x000000008171733c       0x80 drivers/built-in.o
                0x000000008171733c                mmc_create
 .text.mmc_berase
                0x00000000817173bc      0x11c drivers/built-in.o
                0x00000000817173bc                mmc_berase
 .text.mmc_bwrite
                0x00000000817174d8      0x118 drivers/built-in.o
                0x00000000817174d8                mmc_bwrite
 .text.sunxi_mmc_core_init
                0x00000000817175f0       0x1e drivers/built-in.o
 *fill*         0x000000008171760e        0x2 
 .text.sunxi_mmc_getcd_gpio
                0x0000000081717610       0x20 drivers/built-in.o
 .text.sunxi_mmc_getcd_legacy
                0x0000000081717630       0x22 drivers/built-in.o
 *fill*         0x0000000081717652        0x2 
 .text.mmc_update_clk.isra.1
                0x0000000081717654       0x48 drivers/built-in.o
 .text.mmc_set_mod_clk
                0x000000008171769c       0xa4 drivers/built-in.o
 .text.sunxi_mmc_set_ios_legacy
                0x0000000081717740       0x8c drivers/built-in.o
 .text.sunxi_mmc_send_cmd_legacy
                0x00000000817177cc      0x224 drivers/built-in.o
 .text.sunxi_mmc_init
                0x00000000817179f0      0x138 drivers/built-in.o
                0x00000000817179f0                sunxi_mmc_init
 .text.keyboard_start
                0x0000000081717b28       0x1c drivers/built-in.o
 .text.keyboard_stop
                0x0000000081717b44       0x1c drivers/built-in.o
 .text.keyboard_pre_probe
                0x0000000081717b60       0x50 drivers/built-in.o
 .text.keyboard_tstc
                0x0000000081717bb0       0x36 drivers/built-in.o
 .text.keyboard_getc
                0x0000000081717be6       0x36 drivers/built-in.o
 .text.input_tstc
                0x0000000081717c1c       0x32 drivers/built-in.o
                0x0000000081717c1c                input_tstc
 .text.input_getc
                0x0000000081717c4e       0x40 drivers/built-in.o
                0x0000000081717c4e                input_getc
 .text.input_init
                0x0000000081717c8e       0x1c drivers/built-in.o
                0x0000000081717c8e                input_init
 .text.get_function
                0x0000000081717caa       0x66 drivers/gpio/built-in.o
 .text.gpio_to_device
                0x0000000081717d10       0x52 drivers/gpio/built-in.o
 *fill*         0x0000000081717d62        0x2 
 .text.check_reserved
                0x0000000081717d64       0x54 drivers/gpio/built-in.o
 .text.gpio_renumber
                0x0000000081717db8       0x52 drivers/gpio/built-in.o
 .text.gpio_pre_remove
                0x0000000081717e0a       0x38 drivers/gpio/built-in.o
 .text.gpio_post_probe
                0x0000000081717e42       0x2c drivers/gpio/built-in.o
 *fill*         0x0000000081717e6e        0x2 
 .text.dm_gpio_lookup_name
                0x0000000081717e70       0xac drivers/gpio/built-in.o
                0x0000000081717e70                dm_gpio_lookup_name
 .text.gpio_lookup_name
                0x0000000081717f1c       0x50 drivers/gpio/built-in.o
                0x0000000081717f1c                gpio_lookup_name
 .text.gpio_xlate_offs_flags
                0x0000000081717f6c       0x22 drivers/gpio/built-in.o
                0x0000000081717f6c                gpio_xlate_offs_flags
 .text.dm_gpio_request
                0x0000000081717f8e       0x68 drivers/gpio/built-in.o
                0x0000000081717f8e                dm_gpio_request
 .text.dm_gpio_requestf
                0x0000000081717ff6       0x30 drivers/gpio/built-in.o
 .text.gpio_request
                0x0000000081718026       0x24 drivers/gpio/built-in.o
                0x0000000081718026                gpio_request
 .text._dm_gpio_free
                0x000000008171804a       0x4a drivers/gpio/built-in.o
                0x000000008171804a                _dm_gpio_free
 .text.gpio_free
                0x0000000081718094       0x20 drivers/gpio/built-in.o
                0x0000000081718094                gpio_free
 .text.gpio_direction_input
                0x00000000817180b4       0x34 drivers/gpio/built-in.o
                0x00000000817180b4                gpio_direction_input
 .text.gpio_direction_output
                0x00000000817180e8       0x3c drivers/gpio/built-in.o
                0x00000000817180e8                gpio_direction_output
 .text.dm_gpio_get_value
                0x0000000081718124       0x34 drivers/gpio/built-in.o
                0x0000000081718124                dm_gpio_get_value
 .text.dm_gpio_set_value
                0x0000000081718158       0x38 drivers/gpio/built-in.o
                0x0000000081718158                dm_gpio_set_value
 .text.dm_gpio_set_dir_flags
                0x0000000081718190       0x60 drivers/gpio/built-in.o
                0x0000000081718190                dm_gpio_set_dir_flags
 .text.gpio_request_tail
                0x00000000817181f0       0x88 drivers/gpio/built-in.o
 .text.gpio_get_value
                0x0000000081718278       0x1e drivers/gpio/built-in.o
                0x0000000081718278                gpio_get_value
 .text.gpio_get_bank_info
                0x0000000081718296       0x18 drivers/gpio/built-in.o
                0x0000000081718296                gpio_get_bank_info
 .text.gpio_get_function
                0x00000000817182ae       0x12 drivers/gpio/built-in.o
                0x00000000817182ae                gpio_get_function
 .text.gpio_get_raw_function
                0x00000000817182c0       0x12 drivers/gpio/built-in.o
                0x00000000817182c0                gpio_get_raw_function
 *fill*         0x00000000817182d2        0x2 
 .text.gpio_get_status
                0x00000000817182d4       0xb8 drivers/gpio/built-in.o
                0x00000000817182d4                gpio_get_status
 .text.gpio_request_by_name
                0x000000008171838c       0x48 drivers/gpio/built-in.o
                0x000000008171838c                gpio_request_by_name
 .text.gpio_get_list_count
                0x00000000817183d4       0x30 drivers/gpio/built-in.o
                0x00000000817183d4                gpio_get_list_count
 .text.sunxi_gpio_set_value
                0x0000000081718404       0x2e drivers/gpio/built-in.o
 .text.sunxi_gpio_get_value
                0x0000000081718432       0x20 drivers/gpio/built-in.o
 .text.sunxi_gpio_get_function
                0x0000000081718452       0x24 drivers/gpio/built-in.o
 .text.sunxi_gpio_direction_output
                0x0000000081718476       0x3a drivers/gpio/built-in.o
 .text.sunxi_gpio_direction_input
                0x00000000817184b0       0x1e drivers/gpio/built-in.o
 .text.gpio_sunxi_probe
                0x00000000817184ce       0x28 drivers/gpio/built-in.o
 .text.gpio_sunxi_bind
                0x00000000817184f6       0x98 drivers/gpio/built-in.o
 .text.sunxi_gpio_xlate
                0x000000008171858e       0x2a drivers/gpio/built-in.o
 .text.sunxi_name_to_gpio
                0x00000000817185b8       0x1e drivers/gpio/built-in.o
                0x00000000817185b8                sunxi_name_to_gpio
 .text._serial_putc
                0x00000000817185d6       0x2a drivers/serial/built-in.o
 .text.__serial_getc
                0x0000000081718600       0x24 drivers/serial/built-in.o
 .text.__serial_tstc
                0x0000000081718624       0x1e drivers/serial/built-in.o
 .text.serial_stub_putc
                0x0000000081718642       0x10 drivers/serial/built-in.o
 .text.serial_stub_getc
                0x0000000081718652       0x10 drivers/serial/built-in.o
 .text.serial_stub_tstc
                0x0000000081718662       0x10 drivers/serial/built-in.o
 .text.serial_pre_remove
                0x0000000081718672       0x1c drivers/serial/built-in.o
 *fill*         0x000000008171868e        0x2 
 .text.serial_post_probe
                0x0000000081718690       0x80 drivers/serial/built-in.o
 .text.serial_stub_puts
                0x0000000081718710       0x20 drivers/serial/built-in.o
 .text.serial_init
                0x0000000081718730       0xec drivers/serial/built-in.o
                0x0000000081718730                serial_init
 .text.serial_initialize
                0x000000008171881c        0xe drivers/serial/built-in.o
                0x000000008171881c                serial_initialize
 .text.serial_putc
                0x000000008171882a       0x1a drivers/serial/built-in.o
                0x000000008171882a                serial_putc
 .text.serial_puts
                0x0000000081718844       0x2a drivers/serial/built-in.o
                0x0000000081718844                serial_puts
 .text.serial_getc
                0x000000008171886e       0x1e drivers/serial/built-in.o
                0x000000008171886e                serial_getc
 .text.serial_tstc
                0x000000008171888c       0x1e drivers/serial/built-in.o
                0x000000008171888c                serial_tstc
 .text.serial_setbrg
                0x00000000817188aa       0x26 drivers/serial/built-in.o
                0x00000000817188aa                serial_setbrg
 .text.on_baudrate
                0x00000000817188d0       0xb4 drivers/serial/built-in.o
 .text.serial_stdio_init
                0x0000000081718984        0x2 drivers/serial/built-in.o
                0x0000000081718984                serial_stdio_init
 *fill*         0x0000000081718986        0x2 
 .text.ns16550_serial_ofdata_to_platdata
                0x0000000081718988       0x74 drivers/serial/built-in.o
                0x0000000081718988                ns16550_serial_ofdata_to_platdata
 .text.ns16550_writeb.isra.0
                0x00000000817189fc       0x1c drivers/serial/built-in.o
 .text.NS16550_setbrg
                0x0000000081718a18       0x3e drivers/serial/built-in.o
 .text.ns16550_serial_setbrg
                0x0000000081718a56       0x2c drivers/serial/built-in.o
 .text.ns16550_readb.isra.1
                0x0000000081718a82       0x18 drivers/serial/built-in.o
 .text.ns16550_serial_pending
                0x0000000081718a9a       0x30 drivers/serial/built-in.o
 .text.ns16550_serial_putc
                0x0000000081718aca       0x32 drivers/serial/built-in.o
 .text.ns16550_serial_getc
                0x0000000081718afc       0x2c drivers/serial/built-in.o
 .text.NS16550_init
                0x0000000081718b28       0x48 drivers/serial/built-in.o
                0x0000000081718b28                NS16550_init
 .text.ns16550_serial_probe
                0x0000000081718b70       0x28 drivers/serial/built-in.o
                0x0000000081718b70                ns16550_serial_probe
 .text.spi_child_pre_probe
                0x0000000081718b98       0x2a drivers/spi/built-in.o
 *fill*         0x0000000081718bc2        0x2 
 .text.spi_post_probe
                0x0000000081718bc4       0x28 drivers/spi/built-in.o
 .text.spi_slave_ofdata_to_platdata
                0x0000000081718bec      0x108 drivers/spi/built-in.o
                0x0000000081718bec                spi_slave_ofdata_to_platdata
 .text.spi_child_post_bind
                0x0000000081718cf4       0x22 drivers/spi/built-in.o
 .text.sunxi_spi_set_mode
                0x0000000081718d16        0x4 drivers/spi/built-in.o
 .text.sunxi_spi_release_bus
                0x0000000081718d1a       0x1c drivers/spi/built-in.o
 *fill*         0x0000000081718d36        0x2 
 .text.sunxi_spi_set_speed
                0x0000000081718d38       0x8c drivers/spi/built-in.o
 .text.sunxi_spi_claim_bus
                0x0000000081718dc4       0x54 drivers/spi/built-in.o
 .text.sunxi_spi_ofdata_to_platdata
                0x0000000081718e18       0xc4 drivers/spi/built-in.o
 .text.sunxi_spi_probe
                0x0000000081718edc       0x3c drivers/spi/built-in.o
 .text.sunxi_spi_xfer
                0x0000000081718f18      0x298 drivers/spi/built-in.o
 .text.usb_match_device
                0x00000000817191b0       0x84 drivers/usb/host/built-in.o
 .text.usb_child_post_bind
                0x0000000081719234       0x58 drivers/usb/host/built-in.o
 .text.usb_match_one_id_intf.isra.0
                0x000000008171928c       0x52 drivers/usb/host/built-in.o
 .text.remove_inactive_children.isra.2
                0x00000000817192de       0x54 drivers/usb/host/built-in.o
 *fill*         0x0000000081719332        0x2 
 .text.usb_disable_asynch
                0x0000000081719334       0x14 drivers/usb/host/built-in.o
                0x0000000081719334                usb_disable_asynch
 .text.submit_int_msg
                0x0000000081719348       0x36 drivers/usb/host/built-in.o
                0x0000000081719348                submit_int_msg
 .text.submit_control_msg
                0x000000008171937e       0x5c drivers/usb/host/built-in.o
                0x000000008171937e                submit_control_msg
 .text.submit_bulk_msg
                0x00000000817193da       0x32 drivers/usb/host/built-in.o
                0x00000000817193da                submit_bulk_msg
 .text.usb_alloc_device
                0x000000008171940c       0x22 drivers/usb/host/built-in.o
                0x000000008171940c                usb_alloc_device
 .text.usb_reset_root_port
                0x000000008171942e       0x24 drivers/usb/host/built-in.o
                0x000000008171942e                usb_reset_root_port
 .text.usb_update_hub_device
                0x0000000081719452       0x24 drivers/usb/host/built-in.o
                0x0000000081719452                usb_update_hub_device
 .text.usb_get_max_xfer_size
                0x0000000081719476       0x22 drivers/usb/host/built-in.o
                0x0000000081719476                usb_get_max_xfer_size
 .text.usb_stop
                0x0000000081719498       0x74 drivers/usb/host/built-in.o
                0x0000000081719498                usb_stop
 .text.usb_get_bus
                0x000000008171950c       0x22 drivers/usb/host/built-in.o
                0x000000008171950c                usb_get_bus
 *fill*         0x000000008171952e        0x2 
 .text.usb_scan_device
                0x0000000081719530      0x1e0 drivers/usb/host/built-in.o
                0x0000000081719530                usb_scan_device
 .text.usb_scan_bus.isra.3
                0x0000000081719710       0x58 drivers/usb/host/built-in.o
 .text.usb_init
                0x0000000081719768      0x130 drivers/usb/host/built-in.o
                0x0000000081719768                usb_init
 .text.usb_child_pre_probe
                0x0000000081719898       0x54 drivers/usb/host/built-in.o
                0x0000000081719898                usb_child_pre_probe
 .text.env_get_yesno
                0x00000000817198ec       0x30 env/built-in.o
                0x00000000817198ec                env_get_yesno
 .text.env_get_default
                0x000000008171991c       0x28 env/built-in.o
                0x000000008171991c                env_get_default
 .text.set_default_env
                0x0000000081719944       0x88 env/built-in.o
                0x0000000081719944                set_default_env
 .text.set_default_vars
                0x00000000817199cc       0x30 env/built-in.o
                0x00000000817199cc                set_default_vars
 .text.env_import
                0x00000000817199fc       0x8c env/built-in.o
                0x00000000817199fc                env_import
 .text.env_export
                0x0000000081719a88       0x5c env/built-in.o
                0x0000000081719a88                env_export
 .text.env_relocate
                0x0000000081719ae4       0x28 env/built-in.o
                0x0000000081719ae4                env_relocate
 .text.env_complete
                0x0000000081719b0c       0x98 env/built-in.o
                0x0000000081719b0c                env_complete
 .text.env_driver_lookup_default
                0x0000000081719ba4       0x20 env/built-in.o
                0x0000000081719ba4                env_driver_lookup_default
 .text.env_get_char
                0x0000000081719bc4       0x3c env/built-in.o
                0x0000000081719bc4                env_get_char
 .text.env_load
                0x0000000081719c00       0x20 env/built-in.o
                0x0000000081719c00                env_load
 .text.env_save
                0x0000000081719c20       0x24 env/built-in.o
                0x0000000081719c20                env_save
 .text.env_init
                0x0000000081719c44       0x38 env/built-in.o
                0x0000000081719c44                env_init
 .text.env_attr_walk
                0x0000000081719c7c       0xb0 env/built-in.o
                0x0000000081719c7c                env_attr_walk
 .text.env_attr_lookup
                0x0000000081719d2c       0xd8 env/built-in.o
                0x0000000081719d2c                env_attr_lookup
 .text.clear_callback
                0x0000000081719e04        0x8 env/built-in.o
 .text.find_env_callback
                0x0000000081719e0c       0x3c env/built-in.o
 .text.on_callbacks
                0x0000000081719e48       0x38 env/built-in.o
 .text.set_callback
                0x0000000081719e80       0x58 env/built-in.o
 .text.env_callback_init
                0x0000000081719ed8       0x7c env/built-in.o
                0x0000000081719ed8                env_callback_init
 .text.skip_num
                0x0000000081719f54       0x40 env/built-in.o
 .text.clear_flags
                0x0000000081719f94        0x8 env/built-in.o
 .text.on_flags
                0x0000000081719f9c       0x38 env/built-in.o
 .text.env_flags_parse_vartype
                0x0000000081719fd4       0x34 env/built-in.o
                0x0000000081719fd4                env_flags_parse_vartype
 .text.env_flags_parse_varaccess
                0x000000008171a008       0x34 env/built-in.o
                0x000000008171a008                env_flags_parse_varaccess
 .text.set_flags
                0x000000008171a03c       0x64 env/built-in.o
 .text.eth_validate_ethaddr_str
                0x000000008171a0a0       0x4e env/built-in.o
                0x000000008171a0a0                eth_validate_ethaddr_str
 *fill*         0x000000008171a0ee        0x2 
 .text.env_flags_init
                0x000000008171a0f0       0x98 env/built-in.o
                0x000000008171a0f0                env_flags_init
 .text.env_flags_validate
                0x000000008171a188      0x190 env/built-in.o
                0x000000008171a188                env_flags_validate
 .text.mmc_get_env_addr
                0x000000008171a318       0xa8 env/built-in.o
                0x000000008171a318                mmc_get_env_addr
 .text.mmc_get_env_dev
                0x000000008171a3c0        0x4 env/built-in.o
                0x000000008171a3c0                mmc_get_env_dev
 .text.env_mmc_save
                0x000000008171a3c4       0xdc env/built-in.o
 .text.env_mmc_load
                0x000000008171a4a0       0xb8 env/built-in.o
 .text.fs_probe_unsupported
                0x000000008171a558       0x18 fs/built-in.o
 .text.fs_ls_unsupported
                0x000000008171a570        0x6 fs/built-in.o
 .text.fs_exists_unsupported
                0x000000008171a576        0x4 fs/built-in.o
 .text.fs_size_unsupported
                0x000000008171a57a        0x6 fs/built-in.o
 .text.fs_read_unsupported
                0x000000008171a580        0x6 fs/built-in.o
 .text.fs_close_unsupported
                0x000000008171a586        0x2 fs/built-in.o
 .text.fs_opendir_unsupported
                0x000000008171a588        0x6 fs/built-in.o
 *fill*         0x000000008171a58e        0x2 
 .text.fs_get_info
                0x000000008171a590       0x24 fs/built-in.o
 .text.fs_close
                0x000000008171a5b4       0x20 fs/built-in.o
 .text.fs_write_unsupported
                0x000000008171a5d4        0x6 fs/built-in.o
 .text.fs_uuid_unsupported
                0x000000008171a5da        0x6 fs/built-in.o
 .text.fs_set_blk_dev
                0x000000008171a5e0       0x80 fs/built-in.o
                0x000000008171a5e0                fs_set_blk_dev
 .text.fs_set_blk_dev_with_part
                0x000000008171a660       0x60 fs/built-in.o
                0x000000008171a660                fs_set_blk_dev_with_part
 .text.fs_ls    0x000000008171a6c0       0x2c fs/built-in.o
                0x000000008171a6c0                fs_ls
 .text.fs_exists
                0x000000008171a6ec       0x28 fs/built-in.o
                0x000000008171a6ec                fs_exists
 .text.fs_size  0x000000008171a714       0x2c fs/built-in.o
                0x000000008171a714                fs_size
 .text.fs_read  0x000000008171a740       0x74 fs/built-in.o
                0x000000008171a740                fs_read
 .text.fs_write
                0x000000008171a7b4       0x70 fs/built-in.o
                0x000000008171a7b4                fs_write
 .text.fs_opendir
                0x000000008171a824       0x58 fs/built-in.o
                0x000000008171a824                fs_opendir
 .text.fs_readdir
                0x000000008171a87c       0x48 fs/built-in.o
                0x000000008171a87c                fs_readdir
 .text.fs_closedir
                0x000000008171a8c4       0x30 fs/built-in.o
                0x000000008171a8c4                fs_closedir
 .text.fs_ls_generic
                0x000000008171a8f4       0x74 fs/built-in.o
 .text.do_size  0x000000008171a968       0x48 fs/built-in.o
                0x000000008171a968                do_size
 .text.do_load  0x000000008171a9b0      0x17c fs/built-in.o
                0x000000008171a9b0                do_load
 .text.do_ls    0x000000008171ab2c       0x48 fs/built-in.o
                0x000000008171ab2c                do_ls
 .text.file_exists
                0x000000008171ab74       0x22 fs/built-in.o
                0x000000008171ab74                file_exists
 *fill*         0x000000008171ab96        0x2 
 .text.do_save  0x000000008171ab98       0xf4 fs/built-in.o
                0x000000008171ab98                do_save
 .text.do_fs_type
                0x000000008171ac8c       0x54 fs/built-in.o
                0x000000008171ac8c                do_fs_type
 .text.get_fs   0x000000008171ace0        0x8 fs/built-in.o
                0x000000008171ace0                get_fs
 .text.ext4fs_free_node
                0x000000008171ace8       0x1c fs/built-in.o
                0x000000008171ace8                ext4fs_free_node
 .text.ext4fs_read_file
                0x000000008171ad04      0x23c fs/built-in.o
                0x000000008171ad04                ext4fs_read_file
 .text.ext4fs_ls
                0x000000008171af40       0x58 fs/built-in.o
                0x000000008171af40                ext4fs_ls
 .text.ext4fs_exists
                0x000000008171af98        0xe fs/built-in.o
                0x000000008171af98                ext4fs_exists
 .text.ext4fs_size
                0x000000008171afa6        0x8 fs/built-in.o
                0x000000008171afa6                ext4fs_size
 *fill*         0x000000008171afae        0x2 
 .text.ext4fs_read
                0x000000008171afb0       0x3c fs/built-in.o
                0x000000008171afb0                ext4fs_read
 .text.ext4fs_probe
                0x000000008171afec       0x20 fs/built-in.o
                0x000000008171afec                ext4fs_probe
 .text.ext4_read_file
                0x000000008171b00c       0x4c fs/built-in.o
                0x000000008171b00c                ext4_read_file
 .text.ext4fs_uuid
                0x000000008171b058       0x24 fs/built-in.o
                0x000000008171b058                ext4fs_uuid
 .text.ext4fs_bg_get_inode_table_id
                0x000000008171b07c       0x1a fs/built-in.o
                0x000000008171b07c                ext4fs_bg_get_inode_table_id
 .text.ext4fs_read_inode
                0x000000008171b096       0xc4 fs/built-in.o
                0x000000008171b096                ext4fs_read_inode
 *fill*         0x000000008171b15a        0x2 
 .text.read_allocated_block
                0x000000008171b15c      0x5e8 fs/built-in.o
                0x000000008171b15c                read_allocated_block
 .text.ext4fs_reinit_global
                0x000000008171b744       0x7c fs/built-in.o
                0x000000008171b744                ext4fs_reinit_global
 .text.ext4fs_close
                0x000000008171b7c0       0x3c fs/built-in.o
                0x000000008171b7c0                ext4fs_close
 .text.ext4fs_iterate_dir
                0x000000008171b7fc      0x20c fs/built-in.o
                0x000000008171b7fc                ext4fs_iterate_dir
 .text.ext4fs_find_file1
                0x000000008171ba08      0x1b8 fs/built-in.o
 .text.ext4fs_find_file
                0x000000008171bbc0       0x40 fs/built-in.o
                0x000000008171bbc0                ext4fs_find_file
 .text.ext4fs_open
                0x000000008171bc00       0x6c fs/built-in.o
                0x000000008171bc00                ext4fs_open
 .text.ext4fs_mount
                0x000000008171bc6c       0xac fs/built-in.o
                0x000000008171bc6c                ext4fs_mount
 .text.ext4fs_set_blk_dev
                0x000000008171bd18       0x4c fs/built-in.o
                0x000000008171bd18                ext4fs_set_blk_dev
 .text.ext4fs_devread
                0x000000008171bd64       0x28 fs/built-in.o
                0x000000008171bd64                ext4fs_devread
 .text.ext4_read_superblock
                0x000000008171bd8c       0x26 fs/built-in.o
                0x000000008171bd8c                ext4_read_superblock
 *fill*         0x000000008171bdb2        0x2 
 .text.downcase
                0x000000008171bdb4       0x2c fs/built-in.o
 .text.disk_read
                0x000000008171bde0       0x34 fs/built-in.o
 .text.mkcksum  0x000000008171be14       0x36 fs/built-in.o
 *fill*         0x000000008171be4a        0x2 
 .text.disk_write
                0x000000008171be4c       0x50 fs/built-in.o
 .text.flush_dirty_fat_buffer
                0x000000008171be9c       0x60 fs/built-in.o
 .text.set_fatent_value
                0x000000008171befc      0x12e fs/built-in.o
 *fill*         0x000000008171c02a        0x2 
 .text.get_fatent
                0x000000008171c02c      0x10c fs/built-in.o
 .text.next_dent
                0x000000008171c138       0xc0 fs/built-in.o
 .text.find_empty_cluster
                0x000000008171c1f8       0x1a fs/built-in.o
 .text.get_name
                0x000000008171c212       0x82 fs/built-in.o
 .text.get_cluster
                0x000000008171c294      0x110 fs/built-in.o
 .text.set_cluster
                0x000000008171c3a4      0x114 fs/built-in.o
 .text.read_bootsectandvi
                0x000000008171c4b8       0xb8 fs/built-in.o
 .text.fat_itr_root
                0x000000008171c570       0xe4 fs/built-in.o
 .text.set_name
                0x000000008171c654       0xc0 fs/built-in.o
 .text.check_overflow
                0x000000008171c714       0x48 fs/built-in.o
 .text.slot2str
                0x000000008171c75c       0x68 fs/built-in.o
 .text.fat_itr_next
                0x000000008171c7c4       0xc0 fs/built-in.o
 .text.fat_itr_resolve
                0x000000008171c884       0xd6 fs/built-in.o
 *fill*         0x000000008171c95a        0x2 
 .text.flush_dir_table.constprop.8
                0x000000008171c95c       0x94 fs/built-in.o
 .text.do_fat_write
                0x000000008171c9f0      0x8e4 fs/built-in.o
 .text.fat_set_blk_dev
                0x000000008171d2d4       0x90 fs/built-in.o
                0x000000008171d2d4                fat_set_blk_dev
 .text.file_fat_detectfs
                0x000000008171d364       0xd4 fs/built-in.o
                0x000000008171d364                file_fat_detectfs
 .text.fat_exists
                0x000000008171d438       0x48 fs/built-in.o
                0x000000008171d438                fat_exists
 .text.fat_size
                0x000000008171d480       0x78 fs/built-in.o
                0x000000008171d480                fat_size
 .text.file_fat_read_at
                0x000000008171d4f8      0x2f8 fs/built-in.o
                0x000000008171d4f8                file_fat_read_at
 .text.fat_read_file
                0x000000008171d7f0       0x30 fs/built-in.o
                0x000000008171d7f0                fat_read_file
 .text.fat_opendir
                0x000000008171d820       0x60 fs/built-in.o
                0x000000008171d820                fat_opendir
 .text.fat_readdir
                0x000000008171d880       0x5a fs/built-in.o
                0x000000008171d880                fat_readdir
 .text.fat_closedir
                0x000000008171d8da       0x16 fs/built-in.o
                0x000000008171d8da                fat_closedir
 .text.fat_close
                0x000000008171d8f0        0x2 fs/built-in.o
                0x000000008171d8f0                fat_close
 *fill*         0x000000008171d8f2        0x2 
 .text.file_fat_write
                0x000000008171d8f4       0x38 fs/built-in.o
                0x000000008171d8f4                file_fat_write
 .text.fs_devread
                0x000000008171d92c      0x198 fs/built-in.o
                0x000000008171d92c                fs_devread
 .text.invalidate_icache_all
                0x000000008171dac4        0x2 lib/built-in.o
                0x000000008171dac4                invalidate_icache_all
 *fill*         0x000000008171dac6        0x2 
 .text.efi_load_pe
                0x000000008171dac8      0x210 lib/built-in.o
                0x000000008171dac8                efi_load_pe
 .text.indent_string
                0x000000008171dcd8       0x28 lib/built-in.o
 .text.__efi_entry_check
                0x000000008171dd00       0x30 lib/built-in.o
                0x000000008171dd00                __efi_entry_check
 .text.__efi_exit_check
                0x000000008171dd30       0x28 lib/built-in.o
                0x000000008171dd30                __efi_exit_check
 .text.efi_set_mem
                0x000000008171dd58       0x24 lib/built-in.o
 .text.efi_copy_mem
                0x000000008171dd7c       0x24 lib/built-in.o
 .text.efi_calculate_crc32
                0x000000008171dda0       0x28 lib/built-in.o
 .text.efi_close_protocol
                0x000000008171ddc8       0x18 lib/built-in.o
 .text.efi_disconnect_controller
                0x000000008171dde0       0x18 lib/built-in.o
 .text.efi_connect_controller
                0x000000008171ddf8       0x18 lib/built-in.o
 .text.efi_set_watchdog_timer
                0x000000008171de10       0x20 lib/built-in.o
 .text.efi_stall
                0x000000008171de30       0x1e lib/built-in.o
 *fill*         0x000000008171de4e        0x2 
 .text.efi_get_next_monotonic_count
                0x000000008171de50       0x34 lib/built-in.o
 .text.efi_register_protocol_notify
                0x000000008171de84       0x18 lib/built-in.o
 .text.efi_reinstall_protocol_interface
                0x000000008171de9c       0x18 lib/built-in.o
 .text.efi_close_event
                0x000000008171deb4       0x54 lib/built-in.o
 .text.efi_free_pool_ext
                0x000000008171df08       0x20 lib/built-in.o
 .text.efi_allocate_pool_ext
                0x000000008171df28       0x28 lib/built-in.o
 .text.efi_get_memory_map_ext
                0x000000008171df50       0x34 lib/built-in.o
 .text.efi_free_pages_ext
                0x000000008171df84       0x28 lib/built-in.o
 .text.efi_allocate_pages_ext
                0x000000008171dfac       0x2c lib/built-in.o
 .text.efi_restore_tpl
                0x000000008171dfd8       0x28 lib/built-in.o
 .text.efi_raise_tpl
                0x000000008171e000       0x2c lib/built-in.o
 .text.efi_open_protocol_information
                0x000000008171e02c       0x18 lib/built-in.o
 .text.efi_save_gd
                0x000000008171e044       0x14 lib/built-in.o
                0x000000008171e044                efi_save_gd
 .text.efi_restore_gd
                0x000000008171e058       0x18 lib/built-in.o
                0x000000008171e058                efi_restore_gd
 .text.efi_exit
                0x000000008171e070       0x2c lib/built-in.o
 .text.__efi_nesting_inc
                0x000000008171e09c       0x1c lib/built-in.o
                0x000000008171e09c                __efi_nesting_inc
 .text.__efi_nesting_dec
                0x000000008171e0b8       0x1c lib/built-in.o
                0x000000008171e0b8                __efi_nesting_dec
 .text.efi_start_image
                0x000000008171e0d4       0x5c lib/built-in.o
 .text.efi_signal_event
                0x000000008171e130       0x3c lib/built-in.o
                0x000000008171e130                efi_signal_event
 .text.efi_exit_boot_services
                0x000000008171e16c       0x64 lib/built-in.o
 .text.efi_signal_event_ext
                0x000000008171e1d0       0x4c lib/built-in.o
 .text.efi_add_handle
                0x000000008171e21c       0x20 lib/built-in.o
                0x000000008171e21c                efi_add_handle
 .text.efi_create_handle
                0x000000008171e23c       0x2e lib/built-in.o
                0x000000008171e23c                efi_create_handle
 *fill*         0x000000008171e26a        0x2 
 .text.efi_create_event
                0x000000008171e26c       0x70 lib/built-in.o
                0x000000008171e26c                efi_create_event
 .text.efi_create_event_ext
                0x000000008171e2dc       0x34 lib/built-in.o
 .text.efi_timer_check
                0x000000008171e310       0x74 lib/built-in.o
                0x000000008171e310                efi_timer_check
 .text.efi_check_event
                0x000000008171e384       0x78 lib/built-in.o
 .text.efi_wait_for_event
                0x000000008171e3fc       0xb8 lib/built-in.o
 .text.efi_set_timer
                0x000000008171e4b4       0xcc lib/built-in.o
                0x000000008171e4b4                efi_set_timer
 .text.efi_set_timer_ext
                0x000000008171e580       0x2c lib/built-in.o
 .text.efi_search_obj
                0x000000008171e5ac       0x20 lib/built-in.o
                0x000000008171e5ac                efi_search_obj
 .text.efi_search_protocol
                0x000000008171e5cc       0x58 lib/built-in.o
                0x000000008171e5cc                efi_search_protocol
 .text.efi_remove_protocol
                0x000000008171e624       0x48 lib/built-in.o
                0x000000008171e624                efi_remove_protocol
 .text.efi_locate_protocol
                0x000000008171e66c       0x68 lib/built-in.o
 .text.efi_open_protocol
                0x000000008171e6d4       0x84 lib/built-in.o
 .text.efi_handle_protocol
                0x000000008171e758       0x1a lib/built-in.o
 *fill*         0x000000008171e772        0x2 
 .text.efi_uninstall_protocol_interface
                0x000000008171e774       0x5c lib/built-in.o
 .text.efi_locate_handle
                0x000000008171e7d0       0xc4 lib/built-in.o
 .text.efi_locate_handle_buffer
                0x000000008171e894       0x84 lib/built-in.o
 .text.efi_locate_device_path
                0x000000008171e918       0xd8 lib/built-in.o
 .text.efi_locate_handle_ext
                0x000000008171e9f0       0x34 lib/built-in.o
 .text.efi_remove_all_protocols
                0x000000008171ea24       0x40 lib/built-in.o
                0x000000008171ea24                efi_remove_all_protocols
 .text.efi_delete_handle
                0x000000008171ea64       0x2a lib/built-in.o
                0x000000008171ea64                efi_delete_handle
 *fill*         0x000000008171ea8e        0x2 
 .text.efi_protocols_per_handle
                0x000000008171ea90       0x88 lib/built-in.o
 .text.efi_unload_image
                0x000000008171eb18       0x30 lib/built-in.o
 .text.efi_add_protocol
                0x000000008171eb48       0x5c lib/built-in.o
                0x000000008171eb48                efi_add_protocol
 .text.efi_install_protocol_interface
                0x000000008171eba4       0x50 lib/built-in.o
 .text.efi_uninstall_multiple_protocol_interfaces
                0x000000008171ebf4       0x94 lib/built-in.o
 .text.efi_install_multiple_protocol_interfaces
                0x000000008171ec88       0x94 lib/built-in.o
 .text.efi_install_configuration_table
                0x000000008171ed1c       0xb0 lib/built-in.o
                0x000000008171ed1c                efi_install_configuration_table
 .text.efi_install_configuration_table_ext
                0x000000008171edcc       0x24 lib/built-in.o
 .text.efi_setup_loaded_image
                0x000000008171edf0       0x88 lib/built-in.o
                0x000000008171edf0                efi_setup_loaded_image
 .text.efi_load_image_from_path
                0x000000008171ee78       0xcc lib/built-in.o
                0x000000008171ee78                efi_load_image_from_path
 .text.efi_load_image
                0x000000008171ef44       0xa0 lib/built-in.o
 .text.efi_get_time_boottime
                0x000000008171efe4        0x8 lib/built-in.o
 .text.efi_reset_system_boottime
                0x000000008171efec       0x1e lib/built-in.o
 .text.efi_reset_system_init
                0x000000008171f00a        0x2 lib/built-in.o
                0x000000008171f00a                efi_reset_system_init
 .text.efi_get_time_init
                0x000000008171f00c        0x2 lib/built-in.o
                0x000000008171f00c                efi_get_time_init
 *fill*         0x000000008171f00e        0x2 
 .text.efi_runtime_relocate
                0x000000008171f010       0xcc lib/built-in.o
                0x000000008171f010                efi_runtime_relocate
 .text.efi_set_virtual_address_map
                0x000000008171f0dc      0x114 lib/built-in.o
 .text.efi_key_notify
                0x000000008171f1f0        0x2 lib/built-in.o
 *fill*         0x000000008171f1f2        0x2 
 .text.efi_cin_lock_std_in
                0x000000008171f1f4       0x18 lib/built-in.o
 .text.efi_cin_set_mode
                0x000000008171f20c       0x18 lib/built-in.o
 .text.efi_cin_get_mode
                0x000000008171f224       0x34 lib/built-in.o
 .text.efi_cout_test_string
                0x000000008171f258       0x14 lib/built-in.o
 .text.efi_cout_reset
                0x000000008171f26c       0x18 lib/built-in.o
 .text.efi_cin_reset
                0x000000008171f284       0x18 lib/built-in.o
 .text.efi_cout_enable_cursor
                0x000000008171f29c       0x2c lib/built-in.o
 .text.efi_cout_set_cursor_position
                0x000000008171f2c8       0x34 lib/built-in.o
 .text.efi_cout_clear_screen
                0x000000008171f2fc       0x20 lib/built-in.o
 .text.efi_cout_set_attribute
                0x000000008171f31c       0x50 lib/built-in.o
 .text.efi_cout_output_string
                0x000000008171f36c       0xd4 lib/built-in.o
 .text.efi_console_timer_notify
                0x000000008171f440       0x2c lib/built-in.o
 .text.efi_cout_set_mode
                0x000000008171f46c       0x38 lib/built-in.o
 .text.efi_cin_read_key_stroke
                0x000000008171f4a4       0xd8 lib/built-in.o
 .text.efi_cout_query_mode
                0x000000008171f57c      0x178 lib/built-in.o
 .text.efi_console_register
                0x000000008171f6f4       0xe4 lib/built-in.o
                0x000000008171f6f4                efi_console_register
 .text.efi_mem_cmp
                0x000000008171f7d8       0x28 lib/built-in.o
 .text.efi_find_free_memory
                0x000000008171f800       0x80 lib/built-in.o
 .text.efi_add_memory_map
                0x000000008171f880      0x254 lib/built-in.o
                0x000000008171f880                efi_add_memory_map
 .text.efi_allocate_pages
                0x000000008171fad4       0x80 lib/built-in.o
                0x000000008171fad4                efi_allocate_pages
 .text.efi_alloc
                0x000000008171fb54       0x44 lib/built-in.o
                0x000000008171fb54                efi_alloc
 .text.efi_free_pages
                0x000000008171fb98       0x34 lib/built-in.o
                0x000000008171fb98                efi_free_pages
 .text.efi_allocate_pool
                0x000000008171fbcc       0x40 lib/built-in.o
                0x000000008171fbcc                efi_allocate_pool
 .text.efi_free_pool
                0x000000008171fc0c       0x20 lib/built-in.o
                0x000000008171fc0c                efi_free_pool
 .text.efi_get_memory_map
                0x000000008171fc2c       0x88 lib/built-in.o
                0x000000008171fc2c                efi_get_memory_map
 .text.efi_add_known_memory
                0x000000008171fcb4       0x50 lib/built-in.o
                0x000000008171fcb4                efi_add_known_memory
 .text.efi_memory_init
                0x000000008171fd04       0x68 lib/built-in.o
                0x000000008171fd04                efi_memory_init
 .text.efi_str_to_u16
                0x000000008171fd6c       0x38 lib/built-in.o
 .text.efi_convert_single_device_node_to_text
                0x000000008171fda4      0x2b8 lib/built-in.o
 .text.efi_convert_device_path_to_text
                0x000000008172005c       0x58 lib/built-in.o
 .text.efi_convert_device_node_to_text
                0x00000000817200b4       0x2a lib/built-in.o
 .text.dp_size  0x00000000817200de       0x3a lib/built-in.o
 .text.dp_alloc
                0x0000000081720118       0x22 lib/built-in.o
 *fill*         0x000000008172013a        0x2 
 .text.dp_fill  0x000000008172013c       0x94 lib/built-in.o
 .text.dp_part_fill.part.1
                0x00000000817201d0      0x124 lib/built-in.o
 .text.efi_dp_next
                0x00000000817202f4       0x20 lib/built-in.o
                0x00000000817202f4                efi_dp_next
 .text.efi_dp_match
                0x0000000081720314       0x4c lib/built-in.o
                0x0000000081720314                efi_dp_match
 .text.efi_dp_size
                0x0000000081720360       0x24 lib/built-in.o
                0x0000000081720360                efi_dp_size
 .text.find_obj
                0x0000000081720384       0x9c lib/built-in.o
 .text.efi_dp_find_obj
                0x0000000081720420       0x34 lib/built-in.o
                0x0000000081720420                efi_dp_find_obj
 .text.efi_dp_dup
                0x0000000081720454       0x2c lib/built-in.o
                0x0000000081720454                efi_dp_dup
 .text.efi_dp_from_part
                0x0000000081720480       0x70 lib/built-in.o
                0x0000000081720480                efi_dp_from_part
 .text.efi_dp_from_file
                0x00000000817204f0       0xb4 lib/built-in.o
                0x00000000817204f0                efi_dp_from_file
 .text.efi_dp_from_eth
                0x00000000817205a4       0x60 lib/built-in.o
                0x00000000817205a4                efi_dp_from_eth
 .text.efi_dp_from_mem
                0x0000000081720604       0x98 lib/built-in.o
                0x0000000081720604                efi_dp_from_mem
 .text.efi_dp_split_file_path
                0x000000008172069c       0x4a lib/built-in.o
                0x000000008172069c                efi_dp_split_file_path
 .text.efi_file_flush
                0x00000000817206e6        0xe lib/built-in.o
 .text.efi_file_setinfo
                0x00000000817206f4       0x14 lib/built-in.o
 .text.efi_file_getpos
                0x0000000081720708       0x1a lib/built-in.o
 .text.efi_file_delete
                0x0000000081720722       0x1c lib/built-in.o
 .text.set_blk_dev.isra.0
                0x000000008172073e        0xc lib/built-in.o
 *fill*         0x000000008172074a        0x2 
 .text.efi_file_getinfo
                0x000000008172074c       0xc8 lib/built-in.o
 .text.efi_file_setpos
                0x0000000081720814       0x64 lib/built-in.o
 .text.efi_file_write
                0x0000000081720878       0x60 lib/built-in.o
 .text.efi_file_read
                0x00000000817208d8      0x130 lib/built-in.o
 .text.file_open
                0x0000000081720a08      0x18c lib/built-in.o
 .text.efi_open_volume
                0x0000000081720b94       0x24 lib/built-in.o
 .text.efi_file_open
                0x0000000081720bb8       0x38 lib/built-in.o
 .text.efi_file_close
                0x0000000081720bf0       0x1c lib/built-in.o
 .text.efi_file_from_path
                0x0000000081720c0c       0xac lib/built-in.o
                0x0000000081720c0c                efi_file_from_path
 .text.efi_simple_file_system
                0x0000000081720cb8       0x2c lib/built-in.o
                0x0000000081720cb8                efi_simple_file_system
 .text.efi_to_native
                0x0000000081720ce4       0x3c lib/built-in.o
 .text.prefix   0x0000000081720d20       0x24 lib/built-in.o
 .text.hex      0x0000000081720d44       0x2c lib/built-in.o
 .text.parse_attr.part.1
                0x0000000081720d70       0x68 lib/built-in.o
 .text.efi_get_variable
                0x0000000081720dd8      0x178 lib/built-in.o
                0x0000000081720dd8                efi_get_variable
 .text.efi_get_next_variable
                0x0000000081720f50       0x14 lib/built-in.o
                0x0000000081720f50                efi_get_next_variable
 .text.efi_set_variable
                0x0000000081720f64      0x19c lib/built-in.o
                0x0000000081720f64                efi_set_variable
 .text.get_var.constprop.0
                0x0000000081721100       0x78 lib/built-in.o
 .text.efi_bootmgr_load
                0x0000000081721178      0x100 lib/built-in.o
                0x0000000081721178                efi_bootmgr_load
 .text.efi_watchdog_timer_notify
                0x0000000081721278       0x30 lib/built-in.o
 .text.efi_set_watchdog
                0x00000000817212a8       0x34 lib/built-in.o
                0x00000000817212a8                efi_set_watchdog
 .text.efi_watchdog_register
                0x00000000817212dc       0x58 lib/built-in.o
                0x00000000817212dc                efi_watchdog_register
 .text.efi_disk_flush_blocks
                0x0000000081721334       0x14 lib/built-in.o
 .text.efi_disk_reset
                0x0000000081721348       0x18 lib/built-in.o
 .text.efi_disk_add_dev.isra.0.part.1
                0x0000000081721360       0xf4 lib/built-in.o
 .text.efi_disk_read_blocks
                0x0000000081721454       0x64 lib/built-in.o
 .text.efi_disk_write_blocks
                0x00000000817214b8       0x64 lib/built-in.o
 .text.efi_fs_from_path
                0x000000008172151c       0x16 lib/built-in.o
                0x000000008172151c                efi_fs_from_path
 *fill*         0x0000000081721532        0x2 
 .text.efi_disk_register
                0x0000000081721534       0xec lib/built-in.o
                0x0000000081721534                efi_disk_register
 .text.efi_net_push
                0x0000000081721620       0x18 lib/built-in.o
 .text.efi_network_timer_notify
                0x0000000081721638       0x34 lib/built-in.o
 .text.efi_net_nvdata
                0x000000008172166c       0x18 lib/built-in.o
 .text.efi_net_mcastiptomac
                0x0000000081721684       0x18 lib/built-in.o
 .text.efi_net_statistics
                0x000000008172169c       0x18 lib/built-in.o
 .text.efi_net_station_address
                0x00000000817216b4       0x18 lib/built-in.o
 .text.efi_net_receive_filters
                0x00000000817216cc       0x18 lib/built-in.o
 .text.efi_net_reset
                0x00000000817216e4       0x14 lib/built-in.o
 .text.efi_net_start
                0x00000000817216f8       0x14 lib/built-in.o
 .text.efi_net_get_status
                0x000000008172170c       0x48 lib/built-in.o
 .text.efi_net_initialize
                0x0000000081721754       0x18 lib/built-in.o
 .text.efi_net_transmit
                0x000000008172176c       0x40 lib/built-in.o
 .text.efi_net_receive
                0x00000000817217ac       0xe0 lib/built-in.o
 .text.efi_net_shutdown
                0x000000008172188c       0x14 lib/built-in.o
 .text.efi_net_stop
                0x00000000817218a0       0x14 lib/built-in.o
 .text.efi_net_set_dhcp_ack
                0x00000000817218b4       0x3c lib/built-in.o
                0x00000000817218b4                efi_net_set_dhcp_ack
 .text.efi_net_register
                0x00000000817218f0      0x1b4 lib/built-in.o
                0x00000000817218f0                efi_net_register
 .text.efi_smbios_register
                0x0000000081721aa4       0x30 lib/built-in.o
                0x0000000081721aa4                efi_smbios_register
 .text.utf16_strlen
                0x0000000081721ad4       0x12 lib/built-in.o
                0x0000000081721ad4                utf16_strlen
 .text.utf16_strnlen
                0x0000000081721ae6       0x16 lib/built-in.o
                0x0000000081721ae6                utf16_strnlen
 .text.utf16_to_utf8
                0x0000000081721afc       0xd4 lib/built-in.o
                0x0000000081721afc                utf16_to_utf8
 .text.utf8_to_utf16
                0x0000000081721bd0       0x9c lib/built-in.o
                0x0000000081721bd0                utf8_to_utf16
 .text.crc16_ccitt
                0x0000000081721c6c       0x28 lib/built-in.o
                0x0000000081721c6c                crc16_ccitt
 .text.smbios_write_type127
                0x0000000081721c94       0x34 lib/built-in.o
 .text.smbios_write_type32
                0x0000000081721cc8       0x34 lib/built-in.o
 .text.smbios_string_table_len
                0x0000000081721cfc       0x26 lib/built-in.o
 .text.smbios_add_string
                0x0000000081721d22       0x44 lib/built-in.o
 *fill*         0x0000000081721d66        0x2 
 .text.smbios_write_type3
                0x0000000081721d68       0x58 lib/built-in.o
 .text.smbios_write_type2
                0x0000000081721dc0       0x64 lib/built-in.o
 .text.smbios_write_type0
                0x0000000081721e24       0x98 lib/built-in.o
 .text.smbios_write_type1
                0x0000000081721ebc       0x84 lib/built-in.o
 .text.smbios_write_type4
                0x0000000081721f40       0x84 lib/built-in.o
 .text.write_smbios_table
                0x0000000081721fc4       0xb8 lib/built-in.o
                0x0000000081721fc4                write_smbios_table
 .text.initcall_run_list
                0x000000008172207c       0x44 lib/built-in.o
                0x000000008172207c                initcall_run_list
 .text.lmb_add_region
                0x00000000817220c0      0x114 lib/built-in.o
 .text.lmb_init
                0x00000000817221d4       0x16 lib/built-in.o
                0x00000000817221d4                lmb_init
 .text.lmb_add  0x00000000817221ea        0x8 lib/built-in.o
                0x00000000817221ea                lmb_add
 .text.lmb_free
                0x00000000817221f2       0x7a lib/built-in.o
                0x00000000817221f2                lmb_free
 .text.lmb_reserve
                0x000000008172226c        0xa lib/built-in.o
                0x000000008172226c                lmb_reserve
 .text.__lmb_alloc_base
                0x0000000081722276       0xc0 lib/built-in.o
                0x0000000081722276                __lmb_alloc_base
 *fill*         0x0000000081722336        0x2 
 .text.lmb_alloc_base
                0x0000000081722338       0x20 lib/built-in.o
                0x0000000081722338                lmb_alloc_base
 .text.lmb_alloc
                0x0000000081722358        0xa lib/built-in.o
                0x0000000081722358                lmb_alloc
 .text.board_lmb_reserve
                0x0000000081722362        0x2 lib/built-in.o
                0x0000000081722362                board_lmb_reserve
 .text.string_to_ip
                0x0000000081722364       0x64 lib/built-in.o
                0x0000000081722364                string_to_ip
 .text.qsort    0x00000000817223c8       0x88 lib/built-in.o
                0x00000000817223c8                qsort
 .text.strcmp_compar
                0x0000000081722450        0xc lib/built-in.o
                0x0000000081722450                strcmp_compar
 .text.merge    0x000000008172245c       0x3c lib/built-in.o
 .text.list_sort
                0x0000000081722498       0xe8 lib/built-in.o
                0x0000000081722498                list_sort
 .text.zcalloc  0x0000000081722580        0xc lib/built-in.o
                0x0000000081722580                zcalloc
 .text.zcfree   0x000000008172258c        0xa lib/built-in.o
                0x000000008172258c                zcfree
 *fill*         0x0000000081722596        0x2 
 .text.inflate_fast
                0x0000000081722598      0x3b8 lib/built-in.o
                0x0000000081722598                inflate_fast
 .text.inflate_table
                0x0000000081722950      0x32c lib/built-in.o
                0x0000000081722950                inflate_table
 .text.inflateReset
                0x0000000081722c7c       0x46 lib/built-in.o
                0x0000000081722c7c                inflateReset
 *fill*         0x0000000081722cc2        0x2 
 .text.inflateInit2_
                0x0000000081722cc4       0x98 lib/built-in.o
                0x0000000081722cc4                inflateInit2_
 .text.inflateEnd
                0x0000000081722d5c       0x34 lib/built-in.o
                0x0000000081722d5c                inflateEnd
 .text.adler32  0x0000000081722d90      0x214 lib/built-in.o
                0x0000000081722d90                adler32
 .text.inflate  0x0000000081722fa4      0xe88 lib/built-in.o
                0x0000000081722fa4                inflate
 .text.gzalloc  0x0000000081723e2c       0x12 lib/built-in.o
                0x0000000081723e2c                gzalloc
 .text.gzfree   0x0000000081723e3e        0xa lib/built-in.o
                0x0000000081723e3e                gzfree
 .text.gzip_parse_header
                0x0000000081723e48       0x64 lib/built-in.o
                0x0000000081723e48                gzip_parse_header
 .text.zunzip   0x0000000081723eac       0xa8 lib/built-in.o
                0x0000000081723eac                zunzip
 .text.gunzip   0x0000000081723f54       0x2a lib/built-in.o
                0x0000000081723f54                gunzip
 *fill*         0x0000000081723f7e        0x2 
 .text.fdt_check_header
                0x0000000081723f80       0x90 lib/built-in.o
                0x0000000081723f80                fdt_check_header
 .text.fdt_offset_ptr
                0x0000000081724010       0x8e lib/built-in.o
                0x0000000081724010                fdt_offset_ptr
 .text.fdt_next_tag
                0x000000008172409e       0xbe lib/built-in.o
                0x000000008172409e                fdt_next_tag
 .text._fdt_check_node_offset
                0x000000008172415c       0x20 lib/built-in.o
                0x000000008172415c                _fdt_check_node_offset
 .text._fdt_check_prop_offset
                0x000000008172417c       0x20 lib/built-in.o
                0x000000008172417c                _fdt_check_prop_offset
 .text.fdt_next_node
                0x000000008172419c       0x66 lib/built-in.o
                0x000000008172419c                fdt_next_node
 .text.fdt_first_subnode
                0x0000000081724202       0x1c lib/built-in.o
                0x0000000081724202                fdt_first_subnode
 .text.fdt_next_subnode
                0x000000008172421e       0x2a lib/built-in.o
                0x000000008172421e                fdt_next_subnode
 .text._fdt_find_string
                0x0000000081724248       0x30 lib/built-in.o
                0x0000000081724248                _fdt_find_string
 .text.fdt_move
                0x0000000081724278       0x42 lib/built-in.o
                0x0000000081724278                fdt_move
 .text.fdt_setprop_inplace_namelen_partial
                0x00000000817242ba       0x36 lib/built-in.o
                0x00000000817242ba                fdt_setprop_inplace_namelen_partial
 .text.fdt_setprop_inplace
                0x00000000817242f0       0x48 lib/built-in.o
                0x00000000817242f0                fdt_setprop_inplace
 .text._fdt_node_end_offset
                0x0000000081724338       0x22 lib/built-in.o
                0x0000000081724338                _fdt_node_end_offset
 *fill*         0x000000008172435a        0x2 
 .text.fdt_strerror
                0x000000008172435c       0x34 lib/built-in.o
                0x000000008172435c                fdt_strerror
 .text.fdt_address_cells
                0x0000000081724390       0x44 lib/built-in.o
                0x0000000081724390                fdt_address_cells
 .text.fdt_size_cells
                0x00000000817243d4       0x44 lib/built-in.o
                0x00000000817243d4                fdt_size_cells
 .text.overlay_phandle_add_offset
                0x0000000081724418       0x76 lib/built-in.o
 *fill*         0x000000008172448e        0x2 
 .text.overlay_adjust_node_phandles
                0x0000000081724490       0x58 lib/built-in.o
 .text.overlay_update_local_node_references
                0x00000000817244e8      0x144 lib/built-in.o
 .text.overlay_get_target
                0x000000008172462c       0x94 lib/built-in.o
 .text.overlay_apply_node
                0x00000000817246c0       0xa8 lib/built-in.o
 .text.fdt_overlay_apply
                0x0000000081724768      0x430 lib/built-in.o
                0x0000000081724768                fdt_overlay_apply
 .text.fdt_path_next_separator
                0x0000000081724b98       0x2c lib/built-in.o
 .text._nextprop
                0x0000000081724bc4       0x2e lib/built-in.o
 .text.fdt_string
                0x0000000081724bf2       0x24 lib/built-in.o
                0x0000000081724bf2                fdt_string
 .text.fdt_get_mem_rsv
                0x0000000081724c16       0x94 lib/built-in.o
                0x0000000081724c16                fdt_get_mem_rsv
 .text.fdt_num_mem_rsv
                0x0000000081724caa       0x56 lib/built-in.o
                0x0000000081724caa                fdt_num_mem_rsv
 .text.fdt_subnode_offset_namelen
                0x0000000081724d00       0x7a lib/built-in.o
                0x0000000081724d00                fdt_subnode_offset_namelen
 .text.fdt_subnode_offset
                0x0000000081724d7a       0x1c lib/built-in.o
                0x0000000081724d7a                fdt_subnode_offset
 .text.fdt_get_name
                0x0000000081724d96       0x58 lib/built-in.o
                0x0000000081724d96                fdt_get_name
 .text.fdt_first_property_offset
                0x0000000081724dee       0x16 lib/built-in.o
                0x0000000081724dee                fdt_first_property_offset
 .text.fdt_next_property_offset
                0x0000000081724e04       0x16 lib/built-in.o
                0x0000000081724e04                fdt_next_property_offset
 .text.fdt_get_property_by_offset
                0x0000000081724e1a       0x56 lib/built-in.o
                0x0000000081724e1a                fdt_get_property_by_offset
 .text.fdt_get_property_namelen
                0x0000000081724e70       0x7a lib/built-in.o
                0x0000000081724e70                fdt_get_property_namelen
 .text.fdt_get_property
                0x0000000081724eea       0x20 lib/built-in.o
                0x0000000081724eea                fdt_get_property
 .text.fdt_getprop_namelen
                0x0000000081724f0a       0x14 lib/built-in.o
                0x0000000081724f0a                fdt_getprop_namelen
 .text.fdt_getprop_by_offset
                0x0000000081724f1e       0x3e lib/built-in.o
                0x0000000081724f1e                fdt_getprop_by_offset
 .text.fdt_getprop
                0x0000000081724f5c       0x20 lib/built-in.o
                0x0000000081724f5c                fdt_getprop
 .text.fdt_get_phandle
                0x0000000081724f7c       0x58 lib/built-in.o
                0x0000000081724f7c                fdt_get_phandle
 .text.fdt_get_max_phandle
                0x0000000081724fd4       0x42 lib/built-in.o
                0x0000000081724fd4                fdt_get_max_phandle
 *fill*         0x0000000081725016        0x2 
 .text.fdt_get_alias_namelen
                0x0000000081725018       0x2c lib/built-in.o
                0x0000000081725018                fdt_get_alias_namelen
 .text.fdt_path_offset_namelen
                0x0000000081725044       0x8a lib/built-in.o
                0x0000000081725044                fdt_path_offset_namelen
 .text.fdt_path_offset
                0x00000000817250ce       0x18 lib/built-in.o
                0x00000000817250ce                fdt_path_offset
 .text.fdt_get_alias
                0x00000000817250e6       0x18 lib/built-in.o
                0x00000000817250e6                fdt_get_alias
 .text.fdt_get_path
                0x00000000817250fe       0xb6 lib/built-in.o
                0x00000000817250fe                fdt_get_path
 .text.fdt_supernode_atdepth_offset
                0x00000000817251b4       0x62 lib/built-in.o
                0x00000000817251b4                fdt_supernode_atdepth_offset
 .text.fdt_node_depth
                0x0000000081725216       0x1a lib/built-in.o
                0x0000000081725216                fdt_node_depth
 .text.fdt_parent_offset
                0x0000000081725230       0x1c lib/built-in.o
                0x0000000081725230                fdt_parent_offset
 .text.fdt_node_offset_by_phandle
                0x000000008172524c       0x40 lib/built-in.o
                0x000000008172524c                fdt_node_offset_by_phandle
 .text.fdt_stringlist_get
                0x000000008172528c       0x60 lib/built-in.o
                0x000000008172528c                fdt_stringlist_get
 .text._fdt_blocks_misordered
                0x00000000817252ec       0x98 lib/built-in.o
 .text._fdt_splice
                0x0000000081725384       0x98 lib/built-in.o
 .text._fdt_splice_mem_rsv
                0x000000008172541c       0x76 lib/built-in.o
 .text._fdt_splice_struct
                0x0000000081725492       0x70 lib/built-in.o
 .text._fdt_packblocks
                0x0000000081725502      0x118 lib/built-in.o
 .text._fdt_find_add_string
                0x000000008172561a       0xd8 lib/built-in.o
 .text._fdt_add_property
                0x00000000817256f2       0x96 lib/built-in.o
 .text._fdt_rw_check_header
                0x0000000081725788       0x62 lib/built-in.o
 .text.fdt_add_mem_rsv
                0x00000000817257ea       0xc6 lib/built-in.o
                0x00000000817257ea                fdt_add_mem_rsv
 .text.fdt_del_mem_rsv
                0x00000000817258b0       0x50 lib/built-in.o
                0x00000000817258b0                fdt_del_mem_rsv
 .text.fdt_setprop_placeholder
                0x0000000081725900       0x8e lib/built-in.o
                0x0000000081725900                fdt_setprop_placeholder
 .text.fdt_setprop
                0x000000008172598e       0x2a lib/built-in.o
                0x000000008172598e                fdt_setprop
 .text.fdt_delprop
                0x00000000817259b8       0x3c lib/built-in.o
                0x00000000817259b8                fdt_delprop
 .text.fdt_add_subnode_namelen
                0x00000000817259f4       0xae lib/built-in.o
                0x00000000817259f4                fdt_add_subnode_namelen
 .text.fdt_add_subnode
                0x0000000081725aa2       0x1c lib/built-in.o
                0x0000000081725aa2                fdt_add_subnode
 .text.fdt_del_node
                0x0000000081725abe       0x46 lib/built-in.o
                0x0000000081725abe                fdt_del_node
 .text.fdt_open_into
                0x0000000081725b04      0x1ac lib/built-in.o
                0x0000000081725b04                fdt_open_into
 .text.fdtdec_get_int
                0x0000000081725cb0       0x34 lib/built-in.o
                0x0000000081725cb0                fdtdec_get_int
 .text.get_prop_check_min_len
                0x0000000081725ce4       0x30 lib/built-in.o
 .text.fdtdec_get_is_enabled
                0x0000000081725d14       0x2c lib/built-in.o
                0x0000000081725d14                fdtdec_get_is_enabled
 .text.fdtdec_get_alias_seq
                0x0000000081725d40       0xac lib/built-in.o
                0x0000000081725d40                fdtdec_get_alias_seq
 .text.fdtdec_get_chosen_prop
                0x0000000081725dec       0x2c lib/built-in.o
                0x0000000081725dec                fdtdec_get_chosen_prop
 .text.fdtdec_get_chosen_node
                0x0000000081725e18       0x22 lib/built-in.o
                0x0000000081725e18                fdtdec_get_chosen_node
 *fill*         0x0000000081725e3a        0x2 
 .text.fdtdec_prepare_fdt
                0x0000000081725e3c       0x34 lib/built-in.o
                0x0000000081725e3c                fdtdec_prepare_fdt
 .text.fdtdec_lookup_phandle
                0x0000000081725e70       0x40 lib/built-in.o
                0x0000000081725e70                fdtdec_lookup_phandle
 .text.fdtdec_get_int_array
                0x0000000081725eb0       0x5c lib/built-in.o
                0x0000000081725eb0                fdtdec_get_int_array
 .text.fdtdec_parse_phandle_with_args
                0x0000000081725f0c      0x10c lib/built-in.o
                0x0000000081725f0c                fdtdec_parse_phandle_with_args
 .text.fdtdec_get_config_int
                0x0000000081726018       0x30 lib/built-in.o
                0x0000000081726018                fdtdec_get_config_int
 .text.fdtdec_get_config_string
                0x0000000081726048       0x30 lib/built-in.o
                0x0000000081726048                fdtdec_get_config_string
 .text.fdtdec_get_number
                0x0000000081726078       0x32 lib/built-in.o
                0x0000000081726078                fdtdec_get_number
 .text.fdtdec_get_addr_size_fixed
                0x00000000817260aa       0x88 lib/built-in.o
                0x00000000817260aa                fdtdec_get_addr_size_fixed
 .text.fdtdec_get_addr_size_auto_parent
                0x0000000081726132       0x50 lib/built-in.o
                0x0000000081726132                fdtdec_get_addr_size_auto_parent
 .text.fdtdec_get_addr_size_auto_noparent
                0x0000000081726182       0x42 lib/built-in.o
                0x0000000081726182                fdtdec_get_addr_size_auto_noparent
 .text.fdtdec_setup
                0x00000000817261c4       0x28 lib/built-in.o
                0x00000000817261c4                fdtdec_setup
 .text.cmpkey   0x00000000817261ec       0x10 lib/built-in.o
 .text._hdelete.isra.0
                0x00000000817261fc       0x2e lib/built-in.o
 .text.drop_var_from_set.part.1
                0x000000008172622a       0x30 lib/built-in.o
 *fill*         0x000000008172625a        0x2 
 .text.match_string.isra.2
                0x000000008172625c       0x3c lib/built-in.o
 .text.hcreate_r
                0x0000000081726298       0x5c lib/built-in.o
                0x0000000081726298                hcreate_r
 .text.hdestroy_r
                0x00000000817262f4       0x44 lib/built-in.o
                0x00000000817262f4                hdestroy_r
 .text.hmatch_r
                0x0000000081726338       0x58 lib/built-in.o
                0x0000000081726338                hmatch_r
 .text.hsearch_r
                0x0000000081726390      0x298 lib/built-in.o
                0x0000000081726390                hsearch_r
 .text.hdelete_r
                0x0000000081726628       0x88 lib/built-in.o
                0x0000000081726628                hdelete_r
 .text.hexport_r
                0x00000000817266b0      0x1c4 lib/built-in.o
                0x00000000817266b0                hexport_r
 .text.himport_r
                0x0000000081726874      0x270 lib/built-in.o
                0x0000000081726874                himport_r
 .text.hwalk_r  0x0000000081726ae4       0x30 lib/built-in.o
                0x0000000081726ae4                hwalk_r
 .text.display_options_get_banner_priv
                0x0000000081726b14       0x60 lib/built-in.o
                0x0000000081726b14                display_options_get_banner_priv
 .text.display_options_get_banner
                0x0000000081726b74        0xe lib/built-in.o
                0x0000000081726b74                display_options_get_banner
 *fill*         0x0000000081726b82        0x2 
 .text.display_options
                0x0000000081726b84       0x20 lib/built-in.o
                0x0000000081726b84                display_options
 .text.print_size
                0x0000000081726ba4       0xd4 lib/built-in.o
                0x0000000081726ba4                print_size
 .text.print_buffer
                0x0000000081726c78      0x114 lib/built-in.o
                0x0000000081726c78                print_buffer
 .text.crc32_no_comp
                0x0000000081726d8c       0xac lib/built-in.o
                0x0000000081726d8c                crc32_no_comp
 .text.crc32    0x0000000081726e38        0xc lib/built-in.o
                0x0000000081726e38                crc32
 .text.crc32_wd
                0x0000000081726e44        0x8 lib/built-in.o
                0x0000000081726e44                crc32_wd
 .text.__div64_32
                0x0000000081726e4c       0xa2 lib/built-in.o
                0x0000000081726e4c                __div64_32
 *fill*         0x0000000081726eee        0x2 
 .text.hang     0x0000000081726ef0       0x18 lib/built-in.o
                0x0000000081726ef0                hang
 .text.skip_spaces
                0x0000000081726f08       0x18 lib/built-in.o
                0x0000000081726f08                skip_spaces
 .text.strim    0x0000000081726f20       0x34 lib/built-in.o
                0x0000000081726f20                strim
 .text.strncasecmp
                0x0000000081726f54       0x54 lib/built-in.o
                0x0000000081726f54                strncasecmp
 .text.strcpy   0x0000000081726fa8        0xe lib/built-in.o
                0x0000000081726fa8                strcpy
 .text.strncpy  0x0000000081726fb6       0x14 lib/built-in.o
                0x0000000081726fb6                strncpy
 .text.strcat   0x0000000081726fca       0x1c lib/built-in.o
                0x0000000081726fca                strcat
 .text.strncat  0x0000000081726fe6       0x2a lib/built-in.o
                0x0000000081726fe6                strncat
 .text.strcmp   0x0000000081727010       0x1a lib/built-in.o
                0x0000000081727010                strcmp
 .text.strncmp  0x000000008172702a       0x22 lib/built-in.o
                0x000000008172702a                strncmp
 .text.strchr   0x000000008172704c       0x18 lib/built-in.o
                0x000000008172704c                strchr
 .text.strlen   0x0000000081727064       0x10 lib/built-in.o
                0x0000000081727064                strlen
 .text.strlcpy  0x0000000081727074       0x2e lib/built-in.o
                0x0000000081727074                strlcpy
 .text.strrchr  0x00000000817270a2       0x20 lib/built-in.o
                0x00000000817270a2                strrchr
 .text.strnlen  0x00000000817270c2       0x16 lib/built-in.o
                0x00000000817270c2                strnlen
 .text.strdup   0x00000000817270d8       0x20 lib/built-in.o
                0x00000000817270d8                strdup
 .text.strpbrk  0x00000000817270f8       0x20 lib/built-in.o
                0x00000000817270f8                strpbrk
 .text.strsep   0x0000000081727118       0x20 lib/built-in.o
                0x0000000081727118                strsep
 .text.memmove  0x0000000081727138       0x1a lib/built-in.o
                0x0000000081727138                memmove
 .text.memcmp   0x0000000081727152       0x1a lib/built-in.o
                0x0000000081727152                memcmp
 .text.memscan  0x000000008172716c       0x12 lib/built-in.o
                0x000000008172716c                memscan
 .text.strstr   0x000000008172717e       0x3a lib/built-in.o
                0x000000008172717e                strstr
 .text.memchr   0x00000000817271b8       0x20 lib/built-in.o
                0x00000000817271b8                memchr
 .text.tick_to_time
                0x00000000817271d8       0x46 lib/built-in.o
 .text.timer_get_us
                0x000000008172721e       0x1c lib/built-in.o
                0x000000008172721e                timer_get_us
 *fill*         0x000000008172723a        0x2 
 .text.udelay   0x000000008172723c       0x28 lib/built-in.o
                0x000000008172723c                udelay
 .text.uuid_str_valid
                0x0000000081727264       0x50 lib/built-in.o
                0x0000000081727264                uuid_str_valid
 .text.uuid_str_to_bin
                0x00000000817272b4      0x160 lib/built-in.o
                0x00000000817272b4                uuid_str_to_bin
 .text.uuid_bin_to_str
                0x0000000081727414       0x68 lib/built-in.o
                0x0000000081727414                uuid_bin_to_str
 .text.gen_rand_uuid
                0x000000008172747c       0x6e lib/built-in.o
                0x000000008172747c                gen_rand_uuid
 .text.gen_rand_uuid_str
                0x00000000817274ea       0x1c lib/built-in.o
                0x00000000817274ea                gen_rand_uuid_str
 .text.rand_r   0x0000000081727506       0x14 lib/built-in.o
                0x0000000081727506                rand_r
 *fill*         0x000000008172751a        0x2 
 .text.rand     0x000000008172751c       0x10 lib/built-in.o
                0x000000008172751c                rand
 .text.put_dec_trunc
                0x000000008172752c       0xa6 lib/built-in.o
 *fill*         0x00000000817275d2        0x2 
 .text.put_dec  0x00000000817275d4      0x13c lib/built-in.o
 .text.number   0x0000000081727710      0x1f0 lib/built-in.o
 .text.string   0x0000000081727900       0x6c lib/built-in.o
 .text.vsnprintf_internal
                0x000000008172796c      0x580 lib/built-in.o
 .text.vscnprintf
                0x0000000081727eec       0x16 lib/built-in.o
                0x0000000081727eec                vscnprintf
 .text.snprintf
                0x0000000081727f02       0x16 lib/built-in.o
                0x0000000081727f02                snprintf
 .text.vsprintf
                0x0000000081727f18       0x14 lib/built-in.o
                0x0000000081727f18                vsprintf
 .text.sprintf  0x0000000081727f2c       0x16 lib/built-in.o
                0x0000000081727f2c                sprintf
 *fill*         0x0000000081727f42        0x2 
 .text.printf   0x0000000081727f44       0x38 lib/built-in.o
                0x0000000081727f44                printf
 .text.vprintf  0x0000000081727f7c       0x2c lib/built-in.o
                0x0000000081727f7c                vprintf
 .text.simple_itoa
                0x0000000081727fa8       0x34 lib/built-in.o
                0x0000000081727fa8                simple_itoa
 .text.panic_finish
                0x0000000081727fdc       0x20 lib/built-in.o
 .text.panic_str
                0x0000000081727ffc        0xa lib/built-in.o
                0x0000000081727ffc                panic_str
 .text.panic    0x0000000081728006       0x12 lib/built-in.o
                0x0000000081728006                panic
 .text._parse_integer_fixup_radix
                0x0000000081728018       0x60 lib/built-in.o
 .text.simple_strtoul
                0x0000000081728078       0x64 lib/built-in.o
                0x0000000081728078                simple_strtoul
 .text.strict_strtoul
                0x00000000817280dc       0x42 lib/built-in.o
                0x00000000817280dc                strict_strtoul
 .text.simple_strtol
                0x000000008172811e       0x18 lib/built-in.o
                0x000000008172811e                simple_strtol
 .text.ustrtoul
                0x0000000081728136       0x3e lib/built-in.o
                0x0000000081728136                ustrtoul
 .text.simple_strtoull
                0x0000000081728174       0x88 lib/built-in.o
                0x0000000081728174                simple_strtoull
 .text.ustrtoull
                0x00000000817281fc       0x50 lib/built-in.o
                0x00000000817281fc                ustrtoull
 .text.trailing_strtoln
                0x000000008172824c       0x40 lib/built-in.o
                0x000000008172824c                trailing_strtoln
 .text.trailing_strtol
                0x000000008172828c        0xa lib/built-in.o
                0x000000008172828c                trailing_strtol
 .text.compute_ip_checksum
                0x0000000081728296       0x44 net/built-in.o
                0x0000000081728296                compute_ip_checksum
 *fill*         0x00000000817282da        0x2 
 .text.ip_checksum_ok
                0x00000000817282dc       0x14 net/built-in.o
                0x00000000817282dc                ip_checksum_ok
 .text.arp_init
                0x00000000817282f0       0x38 net/built-in.o
                0x00000000817282f0                arp_init
 .text.arp_raw_request
                0x0000000081728328       0x8c net/built-in.o
                0x0000000081728328                arp_raw_request
 .text.arp_request
                0x00000000817283b4       0x54 net/built-in.o
                0x00000000817283b4                arp_request
 .text.arp_timeout_check
                0x0000000081728408       0x60 net/built-in.o
                0x0000000081728408                arp_timeout_check
 .text.arp_receive
                0x0000000081728468      0x180 net/built-in.o
                0x0000000081728468                arp_receive
 .text.dhcp_extended
                0x00000000817285e8      0x18c net/built-in.o
 .text.dhcp_process_options
                0x0000000081728774      0x12c net/built-in.o
 .text.dhcp_packet_process_options
                0x00000000817288a0       0x5c net/built-in.o
 .text.dhcp_handler
                0x00000000817288fc      0x298 net/built-in.o
 .text.bootp_reset
                0x0000000081728b94       0x2c net/built-in.o
                0x0000000081728b94                bootp_reset
 .text.bootp_request
                0x0000000081728bc0      0x1e0 net/built-in.o
                0x0000000081728bc0                bootp_request
 .text.bootp_timeout_handler
                0x0000000081728da0       0x54 net/built-in.o
 .text.dhcp_request
                0x0000000081728df4        0x8 net/built-in.o
                0x0000000081728df4                dhcp_request
 .text.eth_get_uclass_priv
                0x0000000081728dfc       0x1a net/built-in.o
 .text.eth_pre_remove
                0x0000000081728e16       0x22 net/built-in.o
 .text.eth_post_probe
                0x0000000081728e38       0xfc net/built-in.o
 .text.eth_write_hwaddr
                0x0000000081728f34       0x88 net/built-in.o
 .text.on_ethaddr
                0x0000000081728fbc       0x58 net/built-in.o
 .text.eth_post_bind
                0x0000000081729014       0x30 net/built-in.o
 .text.eth_set_current_to_next
                0x0000000081729044       0x2a net/built-in.o
                0x0000000081729044                eth_set_current_to_next
 *fill*         0x000000008172906e        0x2 
 .text.eth_get_dev
                0x0000000081729070       0x2c net/built-in.o
                0x0000000081729070                eth_get_dev
 .text.eth_set_dev
                0x000000008172909c       0x30 net/built-in.o
                0x000000008172909c                eth_set_dev
 .text.eth_pre_unbind
                0x00000000817290cc       0x20 net/built-in.o
 .text.eth_get_dev_by_name
                0x00000000817290ec       0x98 net/built-in.o
                0x00000000817290ec                eth_get_dev_by_name
 .text.eth_get_ethaddr
                0x0000000081729184       0x1c net/built-in.o
                0x0000000081729184                eth_get_ethaddr
 .text.eth_halt_state_only
                0x00000000817291a0       0x1e net/built-in.o
                0x00000000817291a0                eth_halt_state_only
 .text.eth_get_dev_index
                0x00000000817291be       0x1e net/built-in.o
                0x00000000817291be                eth_get_dev_index
 .text.eth_init
                0x00000000817291dc       0xa4 net/built-in.o
                0x00000000817291dc                eth_init
 .text.eth_halt
                0x0000000081729280       0x28 net/built-in.o
                0x0000000081729280                eth_halt
 .text.eth_send
                0x00000000817292a8       0x34 net/built-in.o
                0x00000000817292a8                eth_send
 .text.eth_rx   0x00000000817292dc       0x72 net/built-in.o
                0x00000000817292dc                eth_rx
 *fill*         0x000000008172934e        0x2 
 .text.eth_initialize
                0x0000000081729350       0xb4 net/built-in.o
                0x0000000081729350                eth_initialize
 .text.eth_parse_enetaddr
                0x0000000081729404       0x40 net/built-in.o
                0x0000000081729404                eth_parse_enetaddr
 .text.eth_env_get_enetaddr
                0x0000000081729444       0x38 net/built-in.o
                0x0000000081729444                eth_env_get_enetaddr
 .text.eth_env_set_enetaddr
                0x000000008172947c       0x3c net/built-in.o
                0x000000008172947c                eth_env_set_enetaddr
 .text.eth_env_get_enetaddr_by_index
                0x00000000817294b8       0x34 net/built-in.o
                0x00000000817294b8                eth_env_get_enetaddr_by_index
 .text.eth_env_set_enetaddr_by_index
                0x00000000817294ec       0x34 net/built-in.o
                0x00000000817294ec                eth_env_set_enetaddr_by_index
 .text.eth_common_init
                0x0000000081729520       0x14 net/built-in.o
                0x0000000081729520                eth_common_init
 .text.eth_mac_skip
                0x0000000081729534       0x30 net/built-in.o
                0x0000000081729534                eth_mac_skip
 .text.eth_get_name
                0x0000000081729564       0x20 net/built-in.o
                0x0000000081729564                eth_get_name
 .text.eth_current_changed
                0x0000000081729584       0x68 net/built-in.o
                0x0000000081729584                eth_current_changed
 .text.eth_try_another
                0x00000000817295ec       0x64 net/built-in.o
                0x00000000817295ec                eth_try_another
 .text.eth_set_current
                0x0000000081729650       0x68 net/built-in.o
                0x0000000081729650                eth_set_current
 .text.net_clear_handlers
                0x00000000817296b8       0x24 net/built-in.o
 .text.start_again_timeout_handler
                0x00000000817296dc        0xc net/built-in.o
 .text.dummy_handler
                0x00000000817296e8        0x2 net/built-in.o
 *fill*         0x00000000817296ea        0x2 
 .text.on_ipaddr
                0x00000000817296ec       0x20 net/built-in.o
 .text.on_gatewayip
                0x000000008172970c       0x20 net/built-in.o
 .text.on_netmask
                0x000000008172972c       0x20 net/built-in.o
 .text.on_serverip
                0x000000008172974c       0x20 net/built-in.o
 .text.net_init_loop.part.0
                0x000000008172976c       0x1c net/built-in.o
 .text.net_auto_load
                0x0000000081729788       0x4c net/built-in.o
                0x0000000081729788                net_auto_load
 .text.net_init
                0x00000000817297d4       0x68 net/built-in.o
                0x00000000817297d4                net_init
 .text.net_start_again
                0x000000008172983c       0xfc net/built-in.o
                0x000000008172983c                net_start_again
 .text.net_loop
                0x0000000081729938      0x264 net/built-in.o
                0x0000000081729938                net_loop
 .text.net_set_udp_handler
                0x0000000081729b9c       0x18 net/built-in.o
                0x0000000081729b9c                net_set_udp_handler
 .text.net_get_arp_handler
                0x0000000081729bb4        0xc net/built-in.o
                0x0000000081729bb4                net_get_arp_handler
 .text.net_set_timeout_handler
                0x0000000081729bc0       0x40 net/built-in.o
                0x0000000081729bc0                net_set_timeout_handler
 .text.net_process_received_packet
                0x0000000081729c00      0x248 net/built-in.o
                0x0000000081729c00                net_process_received_packet
 .text.net_eth_hdr_size
                0x0000000081729e48       0x34 net/built-in.o
                0x0000000081729e48                net_eth_hdr_size
 .text.net_set_ether
                0x0000000081729e7c       0x88 net/built-in.o
                0x0000000081729e7c                net_set_ether
 .text.net_update_ether
                0x0000000081729f04       0x70 net/built-in.o
                0x0000000081729f04                net_update_ether
 .text.net_set_ip_header
                0x0000000081729f74       0x68 net/built-in.o
                0x0000000081729f74                net_set_ip_header
 .text.net_set_udp_header
                0x0000000081729fdc       0x90 net/built-in.o
                0x0000000081729fdc                net_set_udp_header
 .text.net_send_udp_packet
                0x000000008172a06c       0xb8 net/built-in.o
                0x000000008172a06c                net_send_udp_packet
 .text.copy_filename
                0x000000008172a124       0x28 net/built-in.o
                0x000000008172a124                copy_filename
 .text.on_bootfile
                0x000000008172a14c       0x28 net/built-in.o
 .text.ip_to_string
                0x000000008172a174       0x4c net/built-in.o
                0x000000008172a174                ip_to_string
 .text.string_to_vlan
                0x000000008172a1c0       0x3c net/built-in.o
                0x000000008172a1c0                string_to_vlan
 .text.on_nvlan
                0x000000008172a1fc       0x20 net/built-in.o
 .text.on_vlan  0x000000008172a21c       0x20 net/built-in.o
 .text.rpc_lookup_reply
                0x000000008172a23c       0xb4 net/built-in.o
 .text.nfs_mount_reply
                0x000000008172a2f0       0x88 net/built-in.o
 .text.nfs_umountall_reply
                0x000000008172a378       0x80 net/built-in.o
 .text.nfs_lookup_reply
                0x000000008172a3f8      0x10c net/built-in.o
 .text.nfs3_get_attributes_offset
                0x000000008172a504       0x24 net/built-in.o
 .text.nfs_readlink_reply
                0x000000008172a528       0xec net/built-in.o
 .text.basename
                0x000000008172a614       0x1e net/built-in.o
 *fill*         0x000000008172a632        0x2 
 .text.rpc_req  0x000000008172a634       0xf0 net/built-in.o
 .text.nfs_read_req
                0x000000008172a724       0xe0 net/built-in.o
 .text.nfs_read_reply.isra.0
                0x000000008172a804      0x160 net/built-in.o
 .text.nfs_mount_req
                0x000000008172a964       0xa4 net/built-in.o
 .text.nfs_readlink_req
                0x000000008172aa08       0x9c net/built-in.o
 .text.nfs_lookup_req
                0x000000008172aaa4      0x13c net/built-in.o
 .text.nfs_umountall_req
                0x000000008172abe0       0x58 net/built-in.o
 .text.nfs_send
                0x000000008172ac38       0xdc net/built-in.o
 .text.nfs_handler
                0x000000008172ad14      0x180 net/built-in.o
 .text.nfs_timeout_handler
                0x000000008172ae94       0x48 net/built-in.o
 .text.nfs_start
                0x000000008172aedc       0xfc net/built-in.o
                0x000000008172aedc                nfs_start
 .text.ping_timeout_handler
                0x000000008172afd8       0x14 net/built-in.o
 .text.ping_start
                0x000000008172afec       0xd8 net/built-in.o
                0x000000008172afec                ping_start
 .text.ping_receive
                0x000000008172b0c4       0xac net/built-in.o
                0x000000008172b0c4                ping_receive
 .text.tftp_send
                0x000000008172b170      0x128 net/built-in.o
 .text.tftp_handler
                0x000000008172b298      0x260 net/built-in.o
 .text.tftp_timeout_handler
                0x000000008172b4f8       0x60 net/built-in.o
 .text.tftp_start
                0x000000008172b558      0x294 net/built-in.o
                0x000000008172b558                tftp_start
 .text.do_dm_dump_devres
                0x000000008172b7ec        0x4 test/dm/built-in.o
 .text.do_dm    0x000000008172b7f0       0x4c test/dm/built-in.o
 .text.do_dm_dump_uclass
                0x000000008172b83c       0x10 test/dm/built-in.o
 .text.do_dm_dump_all
                0x000000008172b84c       0x10 test/dm/built-in.o
 .text.__ashldi3
                0x000000008172b85c       0x1c arch/arm/lib/lib.a(ashldi3.o)
                0x000000008172b85c                __ashldi3
                0x000000008172b85c                __aeabi_llsl
 .text.__udivsi3
                0x000000008172b878       0x9c arch/arm/lib/lib.a(lib1funcs.o)
                0x000000008172b878                __udivsi3
                0x000000008172b878                __aeabi_uidiv
 .text.__divsi3
                0x000000008172b914       0xcc arch/arm/lib/lib.a(lib1funcs.o)
                0x000000008172b914                __aeabi_idiv
                0x000000008172b914                __divsi3
 .text.__aeabi_uidivmod
                0x000000008172b9e0       0x30 arch/arm/lib/lib.a(lib1funcs.o)
                0x000000008172b9e0                __aeabi_uidivmod
                0x000000008172b9f8                __aeabi_idivmod
 .text.Ldiv0    0x000000008172ba10       0x10 arch/arm/lib/lib.a(lib1funcs.o)
 .text.__gnu_thumb1_case_sqi
                0x000000008172ba20       0x24 arch/arm/lib/lib.a(lib1funcs.o)
                0x000000008172ba20                __gnu_thumb1_case_sqi
 .text.__gnu_thumb1_case_uqi
                0x000000008172ba44       0x24 arch/arm/lib/lib.a(lib1funcs.o)
                0x000000008172ba44                __gnu_thumb1_case_uqi
 .text.__gnu_thumb1_case_shi
                0x000000008172ba68       0x28 arch/arm/lib/lib.a(lib1funcs.o)
                0x000000008172ba68                __gnu_thumb1_case_shi
 .text.__gnu_thumb1_case_uhi
                0x000000008172ba90       0x28 arch/arm/lib/lib.a(lib1funcs.o)
                0x000000008172ba90                __gnu_thumb1_case_uhi
 .text.__lshldi3
                0x000000008172bab8       0x1c arch/arm/lib/lib.a(lshrdi3.o)
                0x000000008172bab8                __aeabi_llsr
                0x000000008172bab8                __lshrdi3
 .text.__muldi3
                0x000000008172bad4       0x3c arch/arm/lib/lib.a(muldi3.o)
                0x000000008172bad4                __aeabi_lmul
                0x000000008172bad4                __muldi3
 .text.__div0   0x000000008172bb10        0x8 arch/arm/lib/lib.a(div0.o)
                0x000000008172bb10                __div0
 .text.__div0.__stub
                0x000000008172bb18      0x250 linker stubs

.glue_7         0x000000008172bd68        0x0
 .glue_7        0x000000008172bd68        0x0 linker stubs

.glue_7t        0x000000008172bd68        0x0
 .glue_7t       0x000000008172bd68        0x0 linker stubs

.vfp11_veneer   0x000000008172bd68        0x0
 .vfp11_veneer  0x000000008172bd68        0x0 linker stubs

.v4_bx          0x000000008172bd68        0x0
 .v4_bx         0x000000008172bd68        0x0 linker stubs

.iplt           0x000000008172bd68        0x0
 .iplt          0x000000008172bd68        0x0 arch/arm/cpu/arm926ejs/start.o
                0x000000008172bd68                . = ALIGN (0x4)

.rodata         0x000000008172bd68     0xf262
 *(SORT(.rodata*))
 .rodata.efi_boot_services
                0x000000008172bd68       0xc8 lib/built-in.o
 .rodata.efi_file_handle_protocol
                0x000000008172be30       0x30 lib/built-in.o
 .rodata        0x000000008172be60       0x80 arch/arm/lib/built-in.o
 .rodata.CSWTCH.32
                0x000000008172bee0       0x20 common/built-in.o
 .rodata.CSWTCH.40
                0x000000008172bf00       0x20 disk/built-in.o
 .rodata.CSWTCH.45
                0x000000008172bf20       0x14 cmd/built-in.o
 .rodata.boot_os
                0x000000008172bf34       0x60 common/built-in.o
 .rodata.color  0x000000008172bf94       0x40 lib/built-in.o
 .rodata.crc_table
                0x000000008172bfd4      0x400 lib/built-in.o
 .rodata.desc_and_len_tbl
                0x000000008172c3d4       0x30 cmd/built-in.o
 .rodata.efi_device_path_to_text
                0x000000008172c404        0x8 lib/built-in.o
                0x000000008172c404                efi_device_path_to_text
 .rodata.efi_runtime_detach_list
                0x000000008172c40c       0x50 lib/built-in.o
 .rodata.env_flags_varaccess_mask
                0x000000008172c45c       0x10 env/built-in.o
 .rodata.ext_csd_bits.9775
                0x000000008172c46c       0x14 drivers/built-in.o
 .rodata.ext_to_hostcaps.9776
                0x000000008172c480       0x1c drivers/built-in.o
 .rodata.fbase  0x000000008172c49c       0x10 drivers/built-in.o
 .rodata.fdt_errtable
                0x000000008172c4ac       0x48 lib/built-in.o
 .rodata.generic_simple_bus_ids
                0x000000008172c4f4       0x18 drivers/built-in.o
 .rodata.gpio_function
                0x000000008172c50c       0x14 drivers/gpio/built-in.o
 .rodata.gpio_sunxi_ops
                0x000000008172c520       0x28 drivers/gpio/built-in.o
 .rodata.hub_id_table
                0x000000008172c548       0x30 common/built-in.o
 .rodata.init_sequence_f
                0x000000008172c578       0xa8 common/built-in.o
 .rodata.kbd_id_table
                0x000000008172c620       0x30 common/built-in.o
 .rodata.keywords
                0x000000008172c650       0x98 cmd/built-in.o
 .rodata.mass_storage_id_table
                0x000000008172c6e8       0x30 common/built-in.o
 .rodata.ns16550_serial_ids
                0x000000008172c718       0x60 drivers/serial/built-in.o
 .rodata.ns16550_serial_ops
                0x000000008172c778       0x14 drivers/serial/built-in.o
                0x000000008172c778                ns16550_serial_ops
 .rodata.op_adv
                0x000000008172c78c      0x100 cmd/built-in.o
                0x000000008172c78c                op_adv
 .rodata.op_table
                0x000000008172c88c       0x68 cmd/built-in.o
 .rodata.reg_0_5_desc_tbl
                0x000000008172c8f4       0x30 cmd/built-in.o
 .rodata.reg_0_desc_tbl
                0x000000008172c924       0x78 cmd/built-in.o
 .rodata.reg_1_desc_tbl
                0x000000008172c99c       0xc0 cmd/built-in.o
 .rodata.reg_2_desc_tbl
                0x000000008172ca5c        0xc cmd/built-in.o
 .rodata.reg_3_desc_tbl
                0x000000008172ca68       0x24 cmd/built-in.o
 .rodata.reg_4_desc_tbl
                0x000000008172ca8c       0x90 cmd/built-in.o
 .rodata.reg_5_desc_tbl
                0x000000008172cb1c       0x90 cmd/built-in.o
 .rodata.root_info
                0x000000008172cbac        0x8 drivers/built-in.o
 .rodata.sd_au_size
                0x000000008172cbb4       0x40 drivers/built-in.o
 .rodata.smbios_write_funcs
                0x000000008172cbf4       0x1c lib/built-in.o
 .rodata.soc_data_a_all
                0x000000008172cc10        0x8 drivers/gpio/built-in.o
 .rodata.soc_data_l_1
                0x000000008172cc18        0x8 drivers/gpio/built-in.o
 .rodata.soc_data_l_2
                0x000000008172cc20        0x8 drivers/gpio/built-in.o
 .rodata.soc_data_l_3
                0x000000008172cc28        0x8 drivers/gpio/built-in.o
 .rodata.sunxi_gpio_ids
                0x000000008172cc30       0x90 drivers/gpio/built-in.o
 .rodata.sunxi_mmc_ops
                0x000000008172ccc0       0x14 drivers/built-in.o
 .rodata.sunxi_spi_ids
                0x000000008172ccd4       0x18 drivers/spi/built-in.o
 .rodata.sunxi_spi_ops
                0x000000008172ccec       0x1c drivers/spi/built-in.o
 .rodata.uimage_arch
                0x000000008172cd08      0x138 common/built-in.o
 .rodata.uimage_comp
                0x000000008172ce40       0x54 common/built-in.o
 .rodata.uimage_os
                0x000000008172ce94       0x84 common/built-in.o
 .rodata.uimage_type
                0x000000008172cf18      0x18c common/built-in.o
 .rodata.usb_hub_ids
                0x000000008172d0a4       0x10 common/built-in.o
 .rodata.usb_kbd_ids
                0x000000008172d0b4       0x10 common/built-in.o
 .rodata.usb_mass_storage_ids
                0x000000008172d0c4       0x10 common/built-in.o
 .rodata.widths.9777
                0x000000008172d0d4       0x14 drivers/built-in.o
 .rodata.crc16_tab
                0x000000008172d0e8      0x200 lib/built-in.o
 .rodata.dbase.7456
                0x000000008172d2e8       0x40 lib/built-in.o
 .rodata.dext.7457
                0x000000008172d328       0x40 lib/built-in.o
 .rodata.distfix
                0x000000008172d368       0x80 lib/built-in.o
 .rodata.efi_bootmgr_load.str2.2
                0x000000008172d3e8       0x48 lib/built-in.o
 .rodata.lbase.7454
                0x000000008172d430       0x3e lib/built-in.o
 .rodata.lenfix
                0x000000008172d46e      0x800 lib/built-in.o
 .rodata.lext.7455
                0x000000008172dc6e       0x3e lib/built-in.o
 .rodata.order.7550
                0x000000008172dcac       0x26 lib/built-in.o
 .rodata.vsnprintf_internal.str2.2
                0x000000008172dcd2        0xe lib/built-in.o
 .rodata        0x000000008172dce0       0x10 cmd/built-in.o
 .rodata        0x000000008172dcf0       0x10 disk/built-in.o
 .rodata        0x000000008172dd00        0x3 env/built-in.o
 .rodata        0x000000008172dd03       0x20 lib/built-in.o
 .rodata        0x000000008172dd23        0x7 net/built-in.o
 .rodata.CSWTCH.70
                0x000000008172dd2a       0x16 common/built-in.o
 .rodata.END    0x000000008172dd40        0x4 lib/built-in.o
 .rodata.ROOT   0x000000008172dd44       0x14 lib/built-in.o
 .rodata.__FUNCTION__.8843
                0x000000008172dd58       0x17 common/built-in.o
 .rodata.__FUNCTION__.8988
                0x000000008172dd6f       0x17 common/built-in.o
 .rodata.__func__.10006
                0x000000008172dd86        0xf common/built-in.o
 .rodata.__func__.10159
                0x000000008172dd95       0x15 common/built-in.o
 .rodata.__func__.7128
                0x000000008172ddaa        0xb fs/built-in.o
 .rodata.__func__.7555
                0x000000008172ddb5        0x7 cmd/built-in.o
 .rodata.__func__.8033
                0x000000008172ddbc        0xe common/built-in.o
 .rodata.__func__.8141
                0x000000008172ddca        0xc lib/built-in.o
 .rodata.__func__.8428
                0x000000008172ddd6        0xe disk/built-in.o
 .rodata.__func__.8438
                0x000000008172dde4        0xf disk/built-in.o
 .rodata.__func__.8450
                0x000000008172ddf3       0x12 disk/built-in.o
 .rodata.__func__.8461
                0x000000008172de05       0x13 disk/built-in.o
 .rodata.__func__.8524
                0x000000008172de18        0xc disk/built-in.o
 .rodata.__func__.8542
                0x000000008172de24       0x13 disk/built-in.o
 .rodata.__func__.8592
                0x000000008172de37        0xd disk/built-in.o
 .rodata.__func__.8604
                0x000000008172de44       0x17 disk/built-in.o
 .rodata.__func__.8609
                0x000000008172de5b        0xd disk/built-in.o
 .rodata.__func__.8707
                0x000000008172de68       0x18 common/built-in.o
 .rodata.__func__.9036
                0x000000008172de80        0xe drivers/built-in.o
 .rodata.__func__.9677
                0x000000008172de8e        0xd drivers/built-in.o
 .rodata.__func__.9683
                0x000000008172de9b       0x11 drivers/built-in.o
 .rodata.__func__.9687
                0x000000008172deac       0x18 drivers/built-in.o
 .rodata.__func__.9691
                0x000000008172dec4       0x18 drivers/built-in.o
 .rodata.__func__.9695
                0x000000008172dedc        0xd drivers/built-in.o
 .rodata.__func__.9699
                0x000000008172dee9       0x14 drivers/built-in.o
 .rodata.__func__.9703
                0x000000008172defd       0x14 drivers/built-in.o
 .rodata.__func__.9809
                0x000000008172df11        0x9 drivers/built-in.o
 .rodata._ctype
                0x000000008172df1a      0x100 lib/built-in.o
                0x000000008172df1a                _ctype
 .rodata._do_env_set.isra.0.str1.1
                0x000000008172e01a       0x7c cmd/built-in.o
 .rodata._do_help.str1.1
                0x000000008172e096       0x5f common/built-in.o
 .rodata.announce_dram_init.str1.1
                0x000000008172e0f5        0x8 common/built-in.o
 .rodata.arp_receive.str1.1
                0x000000008172e0fd       0x14 net/built-in.o
 .rodata.arp_request.str1.1
                0x000000008172e111       0x2a net/built-in.o
 .rodata.arp_timeout_check.str1.1
                0x000000008172e13b       0x2b net/built-in.o
 .rodata.autoboot_command.str1.1
                0x000000008172e166       0x31 common/built-in.o
 .rodata.b_addqchr.str1.1
                0x000000008172e197        0x5 common/built-in.o
 .rodata.bad_mode.str1.1
                0x000000008172e19c       0x13 arch/arm/lib/built-in.o
 .rodata.binary_test.str1.1
                0x000000008172e1af       0x17 cmd/built-in.o
 .rodata.blk_common_cmd.str1.1
                0x000000008172e1c6       0xed cmd/built-in.o
                                        0x101 (size before relaxing)
 .rodata.blk_get_device_by_str.str1.1
                0x000000008172e2b3       0x6a disk/built-in.o
 .rodata.blk_get_device_part_str.str1.1
                0x000000008172e31d      0x107 disk/built-in.o
                                        0x109 (size before relaxing)
 .rodata.blk_list_devices.str1.1
                0x000000008172e424       0x2d drivers/built-in.o
                                          0xc (size before relaxing)
 .rodata.blk_print_device_num.str1.1
                0x000000008172e424       0x10 drivers/built-in.o
 .rodata.blk_show_device.str1.1
                0x000000008172e434       0x1d drivers/built-in.o
 .rodata.board_init.str1.1
                0x000000008172e451        0xf board/sunxi/built-in.o
                                         0x10 (size before relaxing)
 .rodata.boot_fdt_add_mem_rsv_regions.str1.1
                0x000000008172e460       0x35 common/built-in.o
 .rodata.boot_get_fdt.str1.1
                0x000000008172e495      0x1b5 common/built-in.o
                                        0x1d0 (size before relaxing)
 .rodata.boot_get_ramdisk.str1.1
                0x000000008172e64a       0xb7 common/built-in.o
                                        0x10d (size before relaxing)
 .rodata.boot_jump_linux.str1.1
                0x000000008172e701       0x5c arch/arm/lib/built-in.o
                                         0x5d (size before relaxing)
 .rodata.boot_prep_linux.str1.1
                0x000000008172e75d       0x20 arch/arm/lib/built-in.o
                                         0x29 (size before relaxing)
 .rodata.boot_prep_vxworks.str1.1
                0x000000008172e77d       0x2a arch/arm/lib/built-in.o
 .rodata.boot_ramdisk_high.str1.1
                0x000000008172e7a7       0x54 common/built-in.o
 .rodata.boot_relocate_fdt.str1.1
                0x000000008172e7fb       0xcf common/built-in.o
                                         0xd3 (size before relaxing)
 .rodata.bootdelay_process.str1.1
                0x000000008172e8ca       0x3a common/built-in.o
                                         0x42 (size before relaxing)
 .rodata.bootm_decomp_image.str1.1
                0x000000008172e904       0x99 common/built-in.o
                                         0xc0 (size before relaxing)
 .rodata.bootm_find_images.str1.1
                0x000000008172e99d       0x49 common/built-in.o
 .rodata.bootm_maybe_autostart.str1.1
                0x000000008172e9e6       0x3b cmd/built-in.o
 .rodata.bootp_request.str1.1
                0x000000008172ea21       0x25 net/built-in.o
 .rodata.bootp_timeout_handler.str1.1
                0x000000008172ea46       0x26 net/built-in.o
 .rodata.check_cache_range.str1.1
                0x000000008172ea6c       0x35 arch/arm/lib/built-in.o
 .rodata.check_reserved.str1.1
                0x000000008172eaa1       0x27 drivers/gpio/built-in.o
                                         0x28 (size before relaxing)
 .rodata.cli_process_fdt.str1.1
                0x000000008172eac8        0xb common/built-in.o
                                         0x13 (size before relaxing)
 .rodata.cli_readline_into_buffer.str1.1
                0x000000008172ead3        0x7 common/built-in.o
                                          0x8 (size before relaxing)
 .rodata.cli_secure_boot_cmd.str1.1
                0x000000008172eada       0x50 common/built-in.o
 .rodata.cmd_auto_complete.str1.1
                0x000000008172eb2a       0x5f common/built-in.o
                                          0xf (size before relaxing)
 .rodata.cmd_process.str1.1
                0x000000008172eb2a       0x3f common/built-in.o
 .rodata.cmd_process_error.str1.1
                0x000000008172eb69       0x1f common/built-in.o
 .rodata.cmd_usage.str1.1
                0x000000008172eb88       0x36 common/built-in.o
 .rodata.common_diskboot.str1.1
                0x000000008172ebbe       0x8f cmd/built-in.o
 .rodata.cread_add_char.str1.1
                0x000000008172ec4d        0x5 common/built-in.o
 .rodata.default_environment
                0x000000008172ec52     0x10ea env/built-in.o
                0x000000008172ec52                default_environment
 .rodata.delims.7192
                0x000000008172fd3c        0x3 env/built-in.o
 .rodata.dev_get_platdata.str1.1
                0x000000008172fd3f       0x11 drivers/built-in.o
 .rodata.dev_print.str1.1
                0x000000008172fd50      0x14d disk/built-in.o
                                        0x15e (size before relaxing)
 .rodata.devfdt_get_addr_index.str1.1
                0x000000008172fe9d        0x4 drivers/built-in.o
 .rodata.device_bind_common.isra.0.str1.1
                0x000000008172fe9d       0x5b drivers/built-in.o
 .rodata.device_probe.str1.1
                0x000000008172fef8       0x30 drivers/built-in.o
 .rodata.device_remove.str1.1
                0x000000008172ff28       0x98 drivers/built-in.o
 .rodata.dhcp_extended.str1.1
                0x000000008172ffc0       0x35 net/built-in.o
                                         0x3d (size before relaxing)
 .rodata.dhcp_handler.str1.1
                0x000000008172fff5       0x41 net/built-in.o
                                         0x4a (size before relaxing)
 .rodata.dhcp_process_options.str1.1
                0x0000000081730036       0x78 net/built-in.o
 .rodata.digits.7179
                0x00000000817300ae       0x10 lib/built-in.o
 .rodata.disk_write.str1.1
                0x00000000817300be       0x18 fs/built-in.o
 .rodata.display_options.str1.1
                0x00000000817300d6        0x3 lib/built-in.o
 .rodata.display_options_get_banner_priv.str1.1
                0x00000000817300d6        0xc lib/built-in.o
                                         0x15 (size before relaxing)
 .rodata.dm_dump_all.str1.1
                0x00000000817300e2       0x26 drivers/built-in.o
                                         0x50 (size before relaxing)
 .rodata.dm_dump_uclass.str1.1
                0x0000000081730108       0x32 drivers/built-in.o
                                         0x34 (size before relaxing)
 .rodata.dm_extended_scan_fdt.str1.1
                0x000000008173013a        0x8 drivers/built-in.o
 .rodata.dm_fdt_pre_reloc.str1.1
                0x0000000081730142       0x30 drivers/built-in.o
 .rodata.dm_gpio_get_value.str1.1
                0x0000000081730172        0xa drivers/gpio/built-in.o
 .rodata.dm_gpio_set_dir_flags.str1.1
                0x000000008173017c        0x8 drivers/gpio/built-in.o
 .rodata.dm_gpio_set_value.str1.1
                0x0000000081730184        0xa drivers/gpio/built-in.o
 .rodata.dm_init.str1.1
                0x000000008173018e       0x25 drivers/built-in.o
 .rodata.dm_root.str1.1
                0x00000000817301b3       0x25 drivers/built-in.o
 .rodata.dm_scan_fdt_node.str1.1
                0x00000000817301d8       0x1d drivers/built-in.o
 .rodata.dm_scan_platdata.str1.1
                0x00000000817301f5       0x1d drivers/built-in.o
 .rodata.do_bdinfo.str1.1
                0x0000000081730212       0xa4 cmd/built-in.o
 .rodata.do_bootd.str1.1
                0x00000000817302b6        0x8 cmd/built-in.o
 .rodata.do_bootefi.str1.1
                0x00000000817302be       0x7d cmd/built-in.o
 .rodata.do_bootefi_exec.str1.1
                0x000000008173033b      0x141 cmd/built-in.o
                                        0x14a (size before relaxing)
 .rodata.do_bootelf.str1.1
                0x000000008173047c       0x52 cmd/built-in.o
                                         0x5c (size before relaxing)
 .rodata.do_bootm.str1.1
                0x00000000817304ce       0x2a cmd/built-in.o
 .rodata.do_bootm_netbsd.str1.1
                0x00000000817304f8       0x49 common/built-in.o
                                         0x4a (size before relaxing)
 .rodata.do_bootm_plan9.str1.1
                0x0000000081730541       0x43 common/built-in.o
                                         0x4c (size before relaxing)
 .rodata.do_bootm_qnxelf.str1.1
                0x0000000081730584        0x4 common/built-in.o
 .rodata.do_bootm_rtems.str1.1
                0x0000000081730584       0x39 common/built-in.o
 .rodata.do_bootm_standalone.str1.1
                0x00000000817305bd       0x16 common/built-in.o
 .rodata.do_bootm_states.str1.1
                0x00000000817305bd      0x1e6 common/built-in.o
                                        0x25e (size before relaxing)
 .rodata.do_bootvx.str1.1
                0x00000000817307a3      0x1bd cmd/built-in.o
                                        0x1d0 (size before relaxing)
 .rodata.do_bootvx_fdt.str1.1
                0x0000000081730960       0x57 common/built-in.o
                                         0x75 (size before relaxing)
 .rodata.do_coninfo.str1.1
                0x00000000817309b7       0x2c cmd/built-in.o
                                         0x30 (size before relaxing)
 .rodata.do_data_abort.str1.1
                0x00000000817309e3        0xc arch/arm/lib/built-in.o
 .rodata.do_echo.str1.1
                0x00000000817309ef        0x3 cmd/built-in.o
 .rodata.do_env_default.str1.1
                0x00000000817309f2       0x25 cmd/built-in.o
 .rodata.do_env_edit.part.3.str1.1
                0x0000000081730a17        0x7 cmd/built-in.o
                                          0xa (size before relaxing)
 .rodata.do_env_export.str1.1
                0x0000000081730a1e       0x2b cmd/built-in.o
                                         0x34 (size before relaxing)
 .rodata.do_env_import.str1.1
                0x0000000081730a49      0x12f cmd/built-in.o
 .rodata.do_env_print.str1.1
                0x0000000081730b78       0x3d cmd/built-in.o
 .rodata.do_env_save.str1.1
                0x0000000081730bb5       0x1d cmd/built-in.o
 .rodata.do_fat_fsinfo.str1.1
                0x0000000081730bd2       0x56 cmd/built-in.o
 .rodata.do_fat_fswrite.str1.1
                0x0000000081730c28       0x6b cmd/built-in.o
 .rodata.do_fat_write.str1.1
                0x0000000081730c93       0xd6 fs/built-in.o
 .rodata.do_fdt.str1.1
                0x0000000081730d69      0x4c6 cmd/built-in.o
                                        0x4ed (size before relaxing)
 .rodata.do_fiq.str1.1
                0x000000008173122f       0x18 arch/arm/lib/built-in.o
 .rodata.do_fixup_by_path.str1.1
                0x0000000081731247       0x29 common/built-in.o
 .rodata.do_fs_uuid.str1.1
                0x0000000081731270        0x4 fs/built-in.o
 .rodata.do_get_any.str1.1
                0x0000000081731270        0x5 cmd/built-in.o
 .rodata.do_get_ext2.str1.1
                0x0000000081731270        0x9 cmd/built-in.o
 .rodata.do_get_fat.str1.1
                0x0000000081731270        0x8 cmd/built-in.o
 .rodata.do_get_tftp.str1.1
                0x0000000081731270        0x5 cmd/built-in.o
 .rodata.do_go.str1.1
                0x0000000081731270       0x4f cmd/built-in.o
 .rodata.do_gpio.str1.1
                0x00000000817312bf       0xc4 cmd/built-in.o
                                         0xd2 (size before relaxing)
 .rodata.do_gpt.str1.1
                0x0000000081731383       0xd6 cmd/built-in.o
                                         0xef (size before relaxing)
 .rodata.do_imgextract.str1.1
                0x0000000081731459      0x148 cmd/built-in.o
                                        0x1ac (size before relaxing)
 .rodata.do_irq.str1.1
                0x00000000817315a1       0x18 arch/arm/lib/built-in.o
                                         0x13 (size before relaxing)
 .rodata.do_itest.str1.1
                0x00000000817315a1       0x1e cmd/built-in.o
 .rodata.do_load.str1.1
                0x00000000817315bf       0x39 fs/built-in.o
                                         0x5b (size before relaxing)
 .rodata.do_load_serial.str1.1
                0x00000000817315f8       0x6b cmd/built-in.o
 .rodata.do_load_serial_bin.str1.1
                0x0000000081731663      0x159 cmd/built-in.o
 .rodata.do_load_wrapper.str1.1
                0x00000000817317bc        0x1 cmd/built-in.o
 .rodata.do_ls.str1.1
                0x00000000817317bc        0x2 fs/built-in.o
 .rodata.do_mem_base.str1.1
                0x00000000817317bc       0x17 cmd/built-in.o
 .rodata.do_mem_cmp.str1.1
                0x00000000817317d3       0x6e cmd/built-in.o
                                         0x73 (size before relaxing)
 .rodata.do_mem_cp.str1.1
                0x0000000081731841       0x11 cmd/built-in.o
 .rodata.do_mii.str1.1
                0x0000000081731852      0x297 cmd/built-in.o
                                        0x2b0 (size before relaxing)
 .rodata.do_mmc_dev.str1.1
                0x0000000081731ae9       0x80 cmd/built-in.o
                                         0x89 (size before relaxing)
 .rodata.do_mmc_erase.str1.1
                0x0000000081731b69       0x67 cmd/built-in.o
 .rodata.do_mmc_hwpartition.str1.1
                0x0000000081731bd0      0x126 cmd/built-in.o
                                        0x142 (size before relaxing)
 .rodata.do_mmc_part.str1.1
                0x0000000081731cf6       0x15 cmd/built-in.o
 .rodata.do_mmc_read.str1.1
                0x0000000081731d0b       0x43 cmd/built-in.o
 .rodata.do_mmc_setdsr.str1.1
                0x0000000081731d4e       0x1d cmd/built-in.o
 .rodata.do_mmc_write.str1.1
                0x0000000081731d6b       0x47 cmd/built-in.o
 .rodata.do_mmcinfo.str1.1
                0x0000000081731db2      0x107 cmd/built-in.o
                                        0x159 (size before relaxing)
 .rodata.do_mmcops.str1.1
                0x0000000081731eb9       0x19 cmd/built-in.o
 .rodata.do_not_used.str1.1
                0x0000000081731ed2        0xa arch/arm/lib/built-in.o
 .rodata.do_part.str1.1
                0x0000000081731edc       0x16 cmd/built-in.o
                                         0x15 (size before relaxing)
 .rodata.do_part_list.str1.1
                0x0000000081731edc       0x22 cmd/built-in.o
                                         0x25 (size before relaxing)
 .rodata.do_part_start.str1.1
                0x0000000081731efe        0x4 cmd/built-in.o
                                          0x8 (size before relaxing)
 .rodata.do_ping.str1.1
                0x0000000081731f02       0x35 cmd/built-in.o
 .rodata.do_prefetch_abort.str1.1
                0x0000000081731f37       0x10 arch/arm/lib/built-in.o
 .rodata.do_pxe_boot.str1.1
                0x0000000081731f47       0x38 cmd/built-in.o
 .rodata.do_pxe_get.str1.1
                0x0000000081731f7f       0x41 cmd/built-in.o
                                         0x46 (size before relaxing)
 .rodata.do_reset.str1.1
                0x0000000081731fc0        0xf arch/arm/lib/built-in.o
 .rodata.do_run.str1.1
                0x0000000081731fcf       0x1c common/built-in.o
 .rodata.do_save.str1.1
                0x0000000081731fcf       0x1d fs/built-in.o
 .rodata.do_setexpr.str1.1
                0x0000000081731fec        0xc cmd/built-in.o
 .rodata.do_showvar.str1.1
                0x0000000081731ff8        0xc common/built-in.o
                                         0x2f (size before relaxing)
 .rodata.do_size.str1.1
                0x0000000081732004        0x9 fs/built-in.o
 .rodata.do_software_interrupt.str1.1
                0x0000000081732004       0x14 arch/arm/lib/built-in.o
 .rodata.do_source.str1.1
                0x0000000081732018       0x1e cmd/built-in.o
 .rodata.do_sysboot.str1.1
                0x0000000081732036       0x43 cmd/built-in.o
 .rodata.do_undefined_instruction.str1.1
                0x0000000081732079       0x17 arch/arm/lib/built-in.o
 .rodata.do_usb.str1.1
                0x0000000081732090      0x272 cmd/built-in.o
                                        0x293 (size before relaxing)
 .rodata.do_usbboot.str1.1
                0x0000000081732302        0x4 cmd/built-in.o
 .rodata.do_version.str1.1
                0x0000000081732306       0xb8 cmd/built-in.o
 .rodata.efi_block_io_guid
                0x00000000817323be       0x10 lib/built-in.o
 .rodata.efi_bootmgr_load.str1.1
                0x00000000817323ce        0xe lib/built-in.o
 .rodata.efi_console_register.str1.1
                0x00000000817323dc       0x90 lib/built-in.o
 .rodata.efi_convert_single_device_node_to_text.str1.1
                0x000000008173246c      0x113 lib/built-in.o
                                        0x11d (size before relaxing)
 .rodata.efi_cout_clear_screen.str1.1
                0x000000008173257f        0x5 lib/built-in.o
 .rodata.efi_cout_enable_cursor.str1.1
                0x0000000081732584        0x8 lib/built-in.o
 .rodata.efi_cout_query_mode.str1.1
                0x000000008173258c       0x11 lib/built-in.o
                                         0x18 (size before relaxing)
 .rodata.efi_cout_set_attribute.str1.1
                0x000000008173259d       0x17 lib/built-in.o
 .rodata.efi_cout_set_cursor_position.str1.1
                0x00000000817325b4        0x9 lib/built-in.o
 .rodata.efi_disk_add_dev.isra.0.part.1.str1.1
                0x00000000817325bd       0x16 lib/built-in.o
 .rodata.efi_disk_register.str1.1
                0x00000000817325bd       0x2f lib/built-in.o
                                         0x34 (size before relaxing)
 .rodata.efi_exit.str1.1
                0x00000000817325ec       0x17 lib/built-in.o
 .rodata.efi_file_from_path.str1.1
                0x0000000081732603       0x10 lib/built-in.o
 .rodata.efi_file_info_guid
                0x0000000081732613       0x10 lib/built-in.o
                0x0000000081732613                efi_file_info_guid
 .rodata.efi_get_variable.str1.1
                0x0000000081732623       0x30 lib/built-in.o
                                         0x37 (size before relaxing)
 .rodata.efi_global_variable_guid
                0x0000000081732653       0x10 lib/built-in.o
                0x0000000081732653                efi_global_variable_guid
 .rodata.efi_guid_console_control
                0x0000000081732663       0x10 lib/built-in.o
                0x0000000081732663                efi_guid_console_control
 .rodata.efi_guid_device_path
                0x0000000081732673       0x10 lib/built-in.o
                0x0000000081732673                efi_guid_device_path
 .rodata.efi_guid_device_path_to_text_protocol
                0x0000000081732683       0x10 lib/built-in.o
                0x0000000081732683                efi_guid_device_path_to_text_protocol
 .rodata.efi_guid_loaded_image
                0x0000000081732693       0x10 lib/built-in.o
                0x0000000081732693                efi_guid_loaded_image
 .rodata.efi_guid_text_input_protocol
                0x00000000817326a3       0x10 lib/built-in.o
                0x00000000817326a3                efi_guid_text_input_protocol
 .rodata.efi_guid_text_output_protocol
                0x00000000817326b3       0x10 lib/built-in.o
                0x00000000817326b3                efi_guid_text_output_protocol
 .rodata.efi_load_pe.str1.1
                0x00000000817326c3       0xbc lib/built-in.o
 .rodata.efi_net_guid
                0x000000008173277f       0x10 lib/built-in.o
 .rodata.efi_net_register.str1.1
                0x000000008173278f       0x4d lib/built-in.o
                                         0x63 (size before relaxing)
 .rodata.efi_pxe_guid
                0x00000000817327dc       0x10 lib/built-in.o
 .rodata.efi_runtime_relocate.str1.1
                0x00000000817327ec       0x34 lib/built-in.o
 .rodata.efi_set_bootdev.str1.1
                0x0000000081732820        0x4 cmd/built-in.o
                                          0xb (size before relaxing)
 .rodata.efi_set_variable.str1.1
                0x0000000081732824       0x16 lib/built-in.o
                                         0x1a (size before relaxing)
 .rodata.efi_setup_loaded_image.str1.1
                0x000000008173283a       0x36 lib/built-in.o
 .rodata.efi_simple_file_system_protocol_guid
                0x0000000081732870       0x10 lib/built-in.o
                0x0000000081732870                efi_simple_file_system_protocol_guid
 .rodata.efi_to_native.str1.1
                0x0000000081732880        0xa lib/built-in.o
 .rodata.efi_watchdog_register.str1.1
                0x000000008173288a       0x4f lib/built-in.o
 .rodata.efi_watchdog_timer_notify.str1.1
                0x00000000817328d9       0x18 lib/built-in.o
 .rodata.env_callback_init.str1.1
                0x00000000817328f1        0xb env/built-in.o
 .rodata.env_complete.str1.1
                0x00000000817328fc        0x4 env/built-in.o
 .rodata.env_export.str1.1
                0x00000000817328fc       0x27 env/built-in.o
 .rodata.env_flags_init.str1.1
                0x00000000817328fc        0x7 env/built-in.o
 .rodata.env_flags_parse_varaccess.str1.1
                0x0000000081732903       0x3d env/built-in.o
 .rodata.env_flags_parse_vartype.str1.1
                0x0000000081732940       0x34 env/built-in.o
 .rodata.env_flags_validate.str1.1
                0x0000000081732974       0xb2 env/built-in.o
                                         0xb3 (size before relaxing)
 .rodata.env_flags_varaccess_rep
                0x0000000081732a26        0x5 env/built-in.o
 .rodata.env_flags_vartype_rep
                0x0000000081732a2b        0x7 env/built-in.o
 .rodata.env_get_bootm_low.str1.1
                0x0000000081732a32        0xa common/built-in.o
 .rodata.env_get_bootm_mapsize.str1.1
                0x0000000081732a3c        0xe common/built-in.o
 .rodata.env_get_bootm_size.str1.1
                0x0000000081732a4a        0xb common/built-in.o
 .rodata.env_get_f.str1.1
                0x0000000081732a55       0x30 cmd/built-in.o
 .rodata.env_import.str1.1
                0x0000000081732a85       0x3f env/built-in.o
 .rodata.env_mmc_load.str1.1
                0x0000000081732ac4        0xd env/built-in.o
 .rodata.env_mmc_save.str1.1
                0x0000000081732ad1       0x3d env/built-in.o
                                         0x50 (size before relaxing)
 .rodata.env_print.str1.1
                0x0000000081732b0e       0x2c cmd/built-in.o
 .rodata.env_set.str1.1
                0x0000000081732b3a        0x7 cmd/built-in.o
 .rodata.env_set_hex.str1.1
                0x0000000081732b41        0x4 cmd/built-in.o
 .rodata.erase_seq
                0x0000000081732b41        0x4 common/built-in.o
 .rodata.eth_current_changed.str1.1
                0x0000000081732b45       0x14 net/built-in.o
 .rodata.eth_env_get_enetaddr_by_index.str1.1
                0x0000000081732b45       0x10 net/built-in.o
 .rodata.eth_env_set_enetaddr.str1.1
                0x0000000081732b55        0x4 net/built-in.o
 .rodata.eth_get_name.str1.1
                0x0000000081732b59        0x8 net/built-in.o
 .rodata.eth_init.str1.1
                0x0000000081732b59       0x11 net/built-in.o
                                         0x28 (size before relaxing)
 .rodata.eth_initialize.str1.1
                0x0000000081732b6a       0x1c net/built-in.o
                                         0x1f (size before relaxing)
 .rodata.eth_mac_skip.str1.1
                0x0000000081732b86       0x18 net/built-in.o
 .rodata.eth_post_bind.str1.1
                0x0000000081732b9e       0x2b net/built-in.o
 .rodata.eth_post_probe.str1.1
                0x0000000081732bc9       0xaf net/built-in.o
                                         0xb3 (size before relaxing)
 .rodata.eth_set_current.str1.1
                0x0000000081732c78        0x9 net/built-in.o
 .rodata.eth_write_hwaddr.str1.1
                0x0000000081732c78       0x4e net/built-in.o
 .rodata.ext4_read_file.str1.1
                0x0000000081732cc6       0x19 fs/built-in.o
 .rodata.ext4fs_iterate_dir.str1.1
                0x0000000081732cdf       0x43 fs/built-in.o
                                         0x4a (size before relaxing)
 .rodata.ext4fs_ls.str1.1
                0x0000000081732d22       0x1f fs/built-in.o
 .rodata.ext4fs_mount.str1.1
                0x0000000081732d41       0x24 fs/built-in.o
 .rodata.extract_env.str1.1
                0x0000000081732d65        0x3 cmd/built-in.o
 .rodata.extract_val.str1.1
                0x0000000081732d68        0x3 cmd/built-in.o
                                          0x4 (size before relaxing)
 .rodata.fat_itr_root.str1.1
                0x0000000081732d68       0x33 fs/built-in.o
 .rodata.fat_read_file.str1.1
                0x0000000081732d9b       0x1e fs/built-in.o
 .rodata.fat_set_blk_dev.str1.1
                0x0000000081732db9        0x3 fs/built-in.o
                                          0xd (size before relaxing)
 .rodata.fdt_address_cells.str1.1
                0x0000000081732dbc        0xf lib/built-in.o
 .rodata.fdt_chosen.str1.1
                0x0000000081732dcb       0x6c common/built-in.o
                                         0x75 (size before relaxing)
 .rodata.fdt_error.str1.1
                0x0000000081732e37       0x2d common/built-in.o
 .rodata.fdt_find_or_add_subnode.str1.1
                0x0000000081732e64        0xc common/built-in.o
 .rodata.fdt_fixup_ethernet.str1.1
                0x0000000081732e70       0x24 common/built-in.o
                                         0x42 (size before relaxing)
 .rodata.fdt_fixup_memory_banks.str1.1
                0x0000000081732e94       0x85 common/built-in.o
                                         0x8c (size before relaxing)
 .rodata.fdt_get_alias_namelen.str1.1
                0x0000000081732f19        0x9 lib/built-in.o
 .rodata.fdt_get_phandle.str1.1
                0x0000000081732f19       0x16 lib/built-in.o
 .rodata.fdt_initrd.str1.1
                0x0000000081732f19       0x90 common/built-in.o
                                         0x97 (size before relaxing)
 .rodata.fdt_overlay_apply.str1.1
                0x0000000081732fa9       0x38 lib/built-in.o
                                         0x51 (size before relaxing)
 .rodata.fdt_overlay_apply_verbose.str1.1
                0x0000000081732fe1       0x83 common/built-in.o
 .rodata.fdt_record_loadable.str1.1
                0x0000000081733064       0x21 common/built-in.o
                                         0x36 (size before relaxing)
 .rodata.fdt_root.str1.1
                0x0000000081733085       0x46 common/built-in.o
                                         0x4e (size before relaxing)
 .rodata.fdt_size_cells.str1.1
                0x00000000817330cb        0xc lib/built-in.o
 .rodata.fdt_strerror.str1.1
                0x00000000817330cb       0x31 lib/built-in.o
 .rodata.fdt_support_default_count_cells.str1.1
                0x00000000817330fc        0xc common/built-in.o
 .rodata.fdt_translate_address.str1.1
                0x0000000081733108       0x22 common/built-in.o
 .rodata.fdt_valid.str1.1
                0x000000008173312a       0x79 cmd/built-in.o
                                         0x7b (size before relaxing)
 .rodata.fdtdec_add_aliases_for_id.str1.1
                0x00000000817331a3        0x9 lib/built-in.o
 .rodata.fdtdec_get_chosen_prop.str1.1
                0x00000000817331a3        0x8 lib/built-in.o
 .rodata.fdtdec_get_config_int.str1.1
                0x00000000817331a3        0x8 lib/built-in.o
 .rodata.fdtdec_get_is_enabled.str1.1
                0x00000000817331ab        0x5 lib/built-in.o
                                          0xc (size before relaxing)
 .rodata.fdtdec_prepare_fdt.str1.1
                0x00000000817331b0       0x96 lib/built-in.o
 .rodata.fdtdec_setup.str1.1
                0x0000000081733246        0xf lib/built-in.o
 .rodata.file_fat_detectfs.str1.1
                0x0000000081733246       0x64 fs/built-in.o
                                         0x84 (size before relaxing)
 .rodata.file_fat_read_at.str1.1
                0x00000000817332aa       0x23 fs/built-in.o
 .rodata.file_fat_write.str1.1
                0x00000000817332cd       0x40 fs/built-in.o
 .rodata.file_get.str1.1
                0x000000008173330d        0x4 common/built-in.o
                                          0x7 (size before relaxing)
 .rodata.file_open.str1.1
                0x0000000081733311        0xa lib/built-in.o
                                          0xb (size before relaxing)
 .rodata.find_mmc_device.str1.1
                0x000000008173331b       0x19 drivers/built-in.o
 .rodata.flush_dir_table.constprop.8.str1.1
                0x0000000081733334       0x21 fs/built-in.o
 .rodata.format_mac_pxe.constprop.6.str1.1
                0x0000000081733355       0x25 cmd/built-in.o
 .rodata.from_env.str1.1
                0x000000008173337a       0x22 cmd/built-in.o
 .rodata.fs_devread.str1.1
                0x000000008173339c       0x98 fs/built-in.o
 .rodata.fs_ls_generic.str1.1
                0x0000000081733434       0x37 fs/built-in.o
 .rodata.fs_probe_unsupported.str1.1
                0x000000008173346b       0x24 fs/built-in.o
 .rodata.fs_read.str1.1
                0x000000008173348f       0x24 fs/built-in.o
 .rodata.fs_write.str1.1
                0x00000000817334b3       0x1f fs/built-in.o
 .rodata.genimg_get_arch_name.str1.1
                0x00000000817334d2       0x15 common/built-in.o
 .rodata.genimg_get_comp_name.str1.1
                0x00000000817334e7       0x14 common/built-in.o
 .rodata.genimg_get_os_name.str1.1
                0x00000000817334fb        0xb common/built-in.o
 .rodata.genimg_get_type_name.str1.1
                0x0000000081733506        0xe common/built-in.o
 .rodata.genimg_print_size.str1.1
                0x0000000081733514        0xc common/built-in.o
                                          0xe (size before relaxing)
 .rodata.get_cluster.str1.1
                0x0000000081733520       0x25 fs/built-in.o
 .rodata.get_descriptor_len.str1.1
                0x0000000081733545       0x64 common/built-in.o
 .rodata.get_fatent.str1.1
                0x00000000817335a9       0x22 fs/built-in.o
 .rodata.get_local_var.str1.1
                0x00000000817335cb        0x3 common/built-in.o
 .rodata.get_pxe_file.str1.1
                0x00000000817335ce        0x9 cmd/built-in.o
 .rodata.get_pxelinux_path.str1.1
                0x00000000817335ce       0x3e cmd/built-in.o
 .rodata.get_relfile.str1.1
                0x000000008173360c       0x56 cmd/built-in.o
                                         0x63 (size before relaxing)
 .rodata.gpio_direction_input.str1.1
                0x0000000081733662        0xa drivers/gpio/built-in.o
 .rodata.gpio_direction_output.str1.1
                0x000000008173366c        0xb drivers/gpio/built-in.o
 .rodata.gpio_get_description.str1.1
                0x0000000081733677        0xa cmd/built-in.o
                                         0x18 (size before relaxing)
 .rodata.gpio_get_status.str1.1
                0x0000000081733681       0x17 drivers/gpio/built-in.o
                                         0x19 (size before relaxing)
 .rodata.gpio_request_by_name_nodev.str1.1
                0x0000000081733698        0xc drivers/gpio/built-in.o
 .rodata.gpio_request_tail.str1.1
                0x00000000817336a4        0xe drivers/gpio/built-in.o
 .rodata.gpt_fill_header.str1.1
                0x00000000817336b2       0x24 disk/built-in.o
 .rodata.gpt_fill_pte.str1.1
                0x00000000817336d6       0x5b disk/built-in.o
 .rodata.gpt_verify_partitions.str1.1
                0x0000000081733731       0xa3 disk/built-in.o
 .rodata.gzip_parse_header.str1.1
                0x00000000817337d4       0x3e lib/built-in.o
 .rodata.handle_include.str1.1
                0x0000000081733812       0x33 cmd/built-in.o
 .rodata.handle_pxe_menu.str1.1
                0x0000000081733845       0x15 cmd/built-in.o
                                         0x18 (size before relaxing)
 .rodata.hang.str1.1
                0x000000008173385a       0x2a lib/built-in.o
 .rodata.hex_asc
                0x0000000081733884       0x11 lib/built-in.o
 .rodata.hexchars.8030
                0x0000000081733895       0x11 lib/built-in.o
 .rodata.hexport_r.str1.1
                0x00000000817338a6       0x30 lib/built-in.o
 .rodata.himport_r.str1.1
                0x00000000817338d6       0x99 lib/built-in.o
 .rodata.image_info.str1.1
                0x000000008173396f       0xac cmd/built-in.o
 .rodata.image_print_contents.str1.1
                0x0000000081733a1b       0xd0 common/built-in.o
                                         0xd4 (size before relaxing)
 .rodata.image_setup_libfdt.str1.1
                0x0000000081733aeb       0xbb common/built-in.o
 .rodata.indent_string.str1.1
                0x0000000081733ba6       0x15 lib/built-in.o
 .rodata.inflate.str1.1
                0x0000000081733bbb      0x158 lib/built-in.o
 .rodata.inflate_fast.str1.1
                0x0000000081733d13       0x50 lib/built-in.o
 .rodata.init_baud_rate.str1.1
                0x0000000081733d63        0x9 common/built-in.o
 .rodata.init_mmc_device.str1.1
                0x0000000081733d6c       0x1a cmd/built-in.o
 .rodata.initcall_run_list.str1.1
                0x0000000081733d86       0x31 lib/built-in.o
 .rodata.initr_env.str1.1
                0x0000000081733db7       0x20 common/built-in.o
                                         0x29 (size before relaxing)
 .rodata.initr_ethaddr.str1.1
                0x0000000081733dd7        0x8 common/built-in.o
 .rodata.initr_mmc.str1.1
                0x0000000081733dd7        0x8 common/built-in.o
 .rodata.initr_net.str1.1
                0x0000000081733ddf        0x8 common/built-in.o
 .rodata.insert_var_value_sub.str1.1
                0x0000000081733de7        0x6 common/built-in.o
 .rodata.ip_to_string.str1.1
                0x0000000081733ded        0xc net/built-in.o
 .rodata.is_gpt_valid.str1.1
                0x0000000081733df9       0xea disk/built-in.o
 .rodata.label_boot.str1.1
                0x0000000081733ee3      0x15e cmd/built-in.o
                                        0x19c (size before relaxing)
 .rodata.label_print.str1.1
                0x0000000081734041        0x8 cmd/built-in.o
 .rodata.list_sort.str1.1
                0x0000000081734049       0x34 lib/built-in.o
 .rodata.lists_bind_drivers.str1.1
                0x000000008173407d       0x1a drivers/built-in.o
 .rodata.lists_bind_fdt.str1.1
                0x0000000081734097       0x4a drivers/built-in.o
 .rodata.lmb_alloc_base.str1.1
                0x00000000817340e1       0x34 lib/built-in.o
 .rodata.load_serial.str1.1
                0x0000000081734115       0x65 cmd/built-in.o
 .rodata.load_serial_ymodem.str1.1
                0x000000008173417a       0x31 cmd/built-in.o
                                         0x35 (size before relaxing)
 .rodata.main_loop.str1.1
                0x00000000817341ab       0x19 common/built-in.o
 .rodata.match_string.isra.2.str1.1
                0x00000000817341c4       0x2c lib/built-in.o
 .rodata.mdio_list_devices.str1.1
                0x00000000817341f0       0x12 common/built-in.o
                                         0x19 (size before relaxing)
 .rodata.menu_get_choice.str1.1
                0x0000000081734202       0x1d common/built-in.o
                                         0x2a (size before relaxing)
 .rodata.miiphy_duplex.str1.1
                0x000000008173421f       0x4f common/built-in.o
 .rodata.miiphy_get_dev_by_name.str1.1
                0x000000008173426e       0x13 common/built-in.o
 .rodata.miiphy_listdev.str1.1
                0x0000000081734281       0x2a common/built-in.o
 .rodata.miiphy_set_current_dev.str1.1
                0x00000000817342ab       0x14 common/built-in.o
 .rodata.miiphy_speed.str1.1
                0x00000000817342bf       0x49 common/built-in.o
 .rodata.misc_init_r.str1.1
                0x0000000081734308       0x5b board/sunxi/built-in.o
                                         0x5f (size before relaxing)
 .rodata.mmc_berase.str1.1
                0x0000000081734363       0x6f drivers/built-in.o
 .rodata.mmc_bread.str1.1
                0x00000000817343d2       0x47 drivers/built-in.o
 .rodata.mmc_bwrite.str1.1
                0x0000000081734419       0x12 drivers/built-in.o
                                         0x59 (size before relaxing)
 .rodata.mmc_get_env_addr.str1.1
                0x000000008173442b       0x2f env/built-in.o
                                         0x35 (size before relaxing)
 .rodata.mmc_hwpart_config.str1.1
                0x000000008173445a      0x19f drivers/built-in.o
 .rodata.mmc_init.str1.1
                0x00000000817345f9       0x12 drivers/built-in.o
 .rodata.mmc_send_status.str1.1
                0x000000008173460b       0x32 drivers/built-in.o
 .rodata.mmc_set_mod_clk.str1.1
                0x000000008173463d       0x25 drivers/built-in.o
 .rodata.mmc_start_init.str1.1
                0x0000000081734662       0x3f drivers/built-in.o
 .rodata.mmc_startup.str1.1
                0x00000000817346a1       0x38 drivers/built-in.o
                                         0x3e (size before relaxing)
 .rodata.mod_mem.isra.0.str1.1
                0x00000000817346d9       0x1d cmd/built-in.o
 .rodata.multipliers
                0x00000000817346f6       0x10 drivers/built-in.o
 .rodata.names.7326
                0x0000000081734706        0x6 lib/built-in.o
 .rodata.net_auto_load.str1.1
                0x000000008173470c        0xd net/built-in.o
 .rodata.net_bcast_ethaddr
                0x0000000081734719        0x6 net/built-in.o
                0x0000000081734719                net_bcast_ethaddr
 .rodata.net_loop.str1.1
                0x000000008173471f       0xe5 net/built-in.o
                                         0xf7 (size before relaxing)
 .rodata.net_process_received_packet.str1.1
                0x0000000081734804       0x1d net/built-in.o
 .rodata.net_start_again.str1.1
                0x0000000081734821        0xe net/built-in.o
                                         0x15 (size before relaxing)
 .rodata.netboot_common.str1.1
                0x000000008173482f       0x16 cmd/built-in.o
                                         0x4a (size before relaxing)
 .rodata.nfs_handler.str1.1
                0x0000000081734845       0x56 net/built-in.o
 .rodata.nfs_lookup_reply.str1.1
                0x000000008173489b       0x25 net/built-in.o
                                         0x27 (size before relaxing)
 .rodata.nfs_read_reply.isra.0.str1.1
                0x00000000817348c0        0x4 net/built-in.o
 .rodata.nfs_readlink_reply.str1.1
                0x00000000817348c4        0x2 net/built-in.o
 .rodata.nfs_start.str1.1
                0x00000000817348c4       0x1e net/built-in.o
                                         0x1f (size before relaxing)
 .rodata.nfs_timeout_handler.str1.1
                0x00000000817348e2       0x2a net/built-in.o
 .rodata.ns16550_serial_ofdata_to_platdata.str1.1
                0x000000008173490c       0x25 drivers/serial/built-in.o
 .rodata.on_baudrate.str1.1
                0x0000000081734931       0x42 drivers/serial/built-in.o
                                         0x74 (size before relaxing)
 .rodata.on_callbacks.str1.1
                0x0000000081734973      0x100 env/built-in.o
 .rodata.on_console.str1.1
                0x0000000081734a73        0x5 common/built-in.o
                                         0x27 (size before relaxing)
 .rodata.on_flags.str1.1
                0x0000000081734a73       0x58 env/built-in.o
 .rodata.overlay_adjust_node_phandles.str1.1
                0x0000000081734acb        0xe lib/built-in.o
                                         0x16 (size before relaxing)
 .rodata.overlay_get_target.str1.1
                0x0000000081734ad9       0x13 lib/built-in.o
 .rodata.parse_attr.part.1.str1.1
                0x0000000081734aec       0x1a lib/built-in.o
                                         0x23 (size before relaxing)
 .rodata.parse_integer.str1.1
                0x0000000081734b06       0x17 cmd/built-in.o
 .rodata.parse_pxefile_top.str1.1
                0x0000000081734b1d       0x89 cmd/built-in.o
 .rodata.parse_sliteral.str1.1
                0x0000000081734ba6       0x1f cmd/built-in.o
 .rodata.parse_stream_outer.str1.1
                0x0000000081734bc5       0x4d common/built-in.o
 .rodata.parse_string_outer.str1.1
                0x0000000081734c12        0x2 common/built-in.o
 .rodata.part_get_info_efi.str1.1
                0x0000000081734c12        0xa disk/built-in.o
 .rodata.part_get_info_extended.str1.1
                0x0000000081734c12        0xa disk/built-in.o
                                         0x11 (size before relaxing)
 .rodata.part_get_info_iso_verb.str1.1
                0x0000000081734c1c      0x1bf disk/built-in.o
                                        0x1c6 (size before relaxing)
 .rodata.part_get_info_whole_disk.str1.1
                0x0000000081734ddb        0xb disk/built-in.o
                                         0x12 (size before relaxing)
 .rodata.part_print.str1.1
                0x0000000081734de6       0x87 disk/built-in.o
                                         0x90 (size before relaxing)
 .rodata.part_print_dos.str1.1
                0x0000000081734e6d       0x2a disk/built-in.o
 .rodata.part_print_efi.str1.1
                0x0000000081734e97       0xf9 disk/built-in.o
 .rodata.part_print_iso.str1.1
                0x0000000081734f90       0x68 disk/built-in.o
 .rodata.part_set_generic_name.str1.1
                0x0000000081734ff8        0xa disk/built-in.o
 .rodata.ping_start.str1.1
                0x0000000081735002       0x11 net/built-in.o
 .rodata.print_buffer.str1.1
                0x0000000081735013        0xe lib/built-in.o
                                         0x17 (size before relaxing)
 .rodata.print_cpuinfo.str1.1
                0x0000000081735021       0x23 arch/arm/mach-sunxi/built-in.o
 .rodata.print_data.str1.1
                0x0000000081735044       0x27 cmd/built-in.o
                                         0x32 (size before relaxing)
 .rodata.print_freq.str1.1
                0x000000008173506b       0x1b lib/built-in.o
 .rodata.print_mmc_devices.str1.1
                0x0000000081735086       0x12 drivers/built-in.o
                                         0x1c (size before relaxing)
 .rodata.print_num.str1.1
                0x0000000081735098       0x10 cmd/built-in.o
 .rodata.print_partition_extended.str1.1
                0x00000000817350a8       0x83 disk/built-in.o
                                         0x84 (size before relaxing)
 .rodata.print_pre_console_buffer.str1.1
                0x000000008173512b        0x7 common/built-in.o
 .rodata.print_size.str1.1
                0x000000008173512b       0x15 lib/built-in.o
 .rodata.read_allocated_block.str1.1
                0x0000000081735140      0x240 fs/built-in.o
 .rodata.read_bootsectandvi.str1.1
                0x0000000081735380       0x1b fs/built-in.o
 .rodata.realloc.str1.1
                0x000000008173539b       0x25 common/built-in.o
 .rodata.run_list_real.str1.1
                0x00000000817353c0       0x45 common/built-in.o
                                         0x4b (size before relaxing)
 .rodata.serial_init.str1.1
                0x0000000081735405       0x17 drivers/serial/built-in.o
                                         0x2b (size before relaxing)
 .rodata.set_default_env.str1.1
                0x000000008173541c       0x4a env/built-in.o
                                         0x71 (size before relaxing)
 .rodata.set_gpt_info.isra.0.constprop.1.str1.1
                0x0000000081735466       0x8e cmd/built-in.o
                                         0xb0 (size before relaxing)
 .rodata.set_local_var.str1.1
                0x00000000817354f4       0x59 common/built-in.o
 .rodata.set_working_fdt_addr.str1.1
                0x000000008173554d        0x8 cmd/built-in.o
 .rodata.setup_environment.str1.1
                0x0000000081735555       0x2e board/sunxi/built-in.o
 .rodata.show_board_info.str1.1
                0x0000000081735583       0x11 common/built-in.o
 .rodata.show_devices.str1.1
                0x0000000081735594       0x2d drivers/built-in.o
                                         0x36 (size before relaxing)
 .rodata.show_dram_config.str1.1
                0x00000000817355c1        0x1 common/built-in.o
 .rodata.show_regs.str1.1
                0x00000000817355c1       0xff arch/arm/lib/built-in.o
                                        0x129 (size before relaxing)
 .rodata.simple_bus_post_bind.str1.1
                0x00000000817356c0        0x7 drivers/built-in.o
 .rodata.smbios_guid
                0x00000000817356c0       0x10 lib/built-in.o
 .rodata.smbios_write_type0.str1.1
                0x00000000817356d0       0x13 lib/built-in.o
                                         0x1a (size before relaxing)
 .rodata.smbios_write_type1.str1.1
                0x00000000817356e3        0x8 lib/built-in.o
 .rodata.smbios_write_type2.str1.1
                0x00000000817356e3       0x13 lib/built-in.o
                                          0x6 (size before relaxing)
 .rodata.smbios_write_type3.str1.1
                0x00000000817356e3        0x1 lib/built-in.o
 .rodata.smbios_write_type4.str1.1
                0x00000000817356e3        0x8 lib/built-in.o
 .rodata.source.str1.1
                0x00000000817356e3       0x7e cmd/built-in.o
 .rodata.spi_post_probe.str1.1
                0x0000000081735761       0x12 drivers/spi/built-in.o
 .rodata.spi_slave_ofdata_to_platdata.str1.1
                0x0000000081735773       0xa0 drivers/spi/built-in.o
                                         0xa4 (size before relaxing)
 .rodata.stdio_add_devices.str1.1
                0x0000000081735813       0x1f common/built-in.o
                                         0x26 (size before relaxing)
 .rodata.stdio_deregister_dev.str1.1
                0x0000000081735832        0x8 common/built-in.o
 .rodata.stdio_print_current_devices.str1.1
                0x000000008173583a       0x70 common/built-in.o
                                         0x74 (size before relaxing)
 .rodata.str1.1
                0x00000000817358aa       0xeb arch/arm/lib/built-in.o
 .rodata.str1.1
                0x0000000081735995     0x3373 cmd/built-in.o
                                       0x3644 (size before relaxing)
 .rodata.str1.1
                0x0000000081738d08      0x79a common/built-in.o
                                        0x81f (size before relaxing)
 .rodata.str1.1
                0x00000000817394a2       0x1f disk/built-in.o
                                         0x22 (size before relaxing)
 .rodata.str1.1
                0x00000000817394c1       0x4a drivers/built-in.o
                                         0x62 (size before relaxing)
 .rodata.str1.1
                0x000000008173950b      0x207 drivers/gpio/built-in.o
                                        0x219 (size before relaxing)
 .rodata.str1.1
                0x0000000081739712       0xb0 drivers/serial/built-in.o
                                         0xc0 (size before relaxing)
 .rodata.str1.1
                0x00000000817397c2       0x55 drivers/spi/built-in.o
                                         0x59 (size before relaxing)
 .rodata.str1.1
                0x0000000081739817       0x10 drivers/usb/host/built-in.o
                                         0x14 (size before relaxing)
 .rodata.str1.1
                0x0000000081739827      0x100 env/built-in.o
                                         0x14 (size before relaxing)
 .rodata.str1.1
                0x0000000081739827       0x11 fs/built-in.o
                                         0x15 (size before relaxing)
 .rodata.str1.1
                0x0000000081739838      0x517 lib/built-in.o
                                        0x518 (size before relaxing)
 .rodata.str1.1
                0x0000000081739d4f        0x6 net/built-in.o
                                         0x3e (size before relaxing)
 .rodata.str1.1
                0x0000000081739d55       0xdc test/dm/built-in.o
                                         0xe2 (size before relaxing)
 .rodata.string.str1.1
                0x0000000081739e31        0x7 lib/built-in.o
 .rodata.sunxi_get_boot_device.str1.1
                0x0000000081739e38       0x21 arch/arm/mach-sunxi/built-in.o
 .rodata.sunxi_gpio_setup_dt_pins.str1.1
                0x0000000081739e59       0x70 arch/arm/mach-sunxi/built-in.o
                                         0x75 (size before relaxing)
 .rodata.sunxi_mmc_getcd_gpio.str1.1
                0x0000000081739ec9        0x1 drivers/built-in.o
 .rodata.sunxi_mmc_init.str1.1
                0x0000000081739ec9       0x29 drivers/built-in.o
 .rodata.sunxi_spi_ofdata_to_platdata.str1.1
                0x0000000081739ef2       0x31 drivers/spi/built-in.o
                                         0x47 (size before relaxing)
 .rodata.sunxi_spi_probe.str1.1
                0x0000000081739f23       0x3c drivers/spi/built-in.o
 .rodata.sunxi_spi_xfer.str1.1
                0x0000000081739f5f       0x6a drivers/spi/built-in.o
                                         0x71 (size before relaxing)
 .rodata.sunxi_usb_phy_probe.str1.1
                0x0000000081739fc9       0x21 arch/arm/mach-sunxi/built-in.o
                                         0x22 (size before relaxing)
 .rodata.syntax_err.str1.1
                0x0000000081739fea        0xe common/built-in.o
 .rodata.tab_seq
                0x0000000081739ff8        0x9 common/built-in.o
 .rodata.test_block_type.str1.1
                0x000000008173a001        0xa disk/built-in.o
 .rodata.tftp_handler.str1.1
                0x000000008173a00b       0x72 net/built-in.o
                                         0x80 (size before relaxing)
 .rodata.tftp_send.str1.1
                0x000000008173a07d       0x36 net/built-in.o
                                         0x42 (size before relaxing)
 .rodata.tftp_start.str1.1
                0x000000008173a0b3      0x156 net/built-in.o
                                        0x181 (size before relaxing)
 .rodata.tftp_timeout_handler.str1.1
                0x000000008173a209       0x2a net/built-in.o
                                         0x2d (size before relaxing)
 .rodata.u_boot_hush_start.str1.1
                0x000000008173a233       0x12 common/built-in.o
 .rodata.uclass_resolve_seq.str1.1
                0x000000008173a245       0x27 drivers/built-in.o
 .rodata.us_direction
                0x000000008173a26c       0x20 common/built-in.o
 .rodata.usb_child_post_bind.str1.1
                0x000000008173a28c       0x25 drivers/usb/host/built-in.o
 .rodata.usb_display_class_sub.str1.1
                0x000000008173a2b1       0xb6 cmd/built-in.o
                                         0xbc (size before relaxing)
 .rodata.usb_display_config.str1.1
                0x000000008173a367      0x10d cmd/built-in.o
                                        0x118 (size before relaxing)
 .rodata.usb_display_desc.str1.1
                0x000000008173a474       0xac cmd/built-in.o
                                         0xae (size before relaxing)
 .rodata.usb_display_string.str1.1
                0x000000008173a520        0xd cmd/built-in.o
 .rodata.usb_get_class_desc.str1.1
                0x000000008173a52d       0x64 cmd/built-in.o
                                         0x65 (size before relaxing)
 .rodata.usb_get_configuration_len.str1.1
                0x000000008173a591       0x58 common/built-in.o
 .rodata.usb_hub_configure.str1.1
                0x000000008173a5e9       0x5f common/built-in.o
 .rodata.usb_hub_port_connect_change.str1.1
                0x000000008173a648       0x18 common/built-in.o
 .rodata.usb_init.str1.1
                0x000000008173a660       0x7e drivers/usb/host/built-in.o
 .rodata.usb_kbd_arrow
                0x000000008173a6de        0x4 common/built-in.o
 .rodata.usb_kbd_num_keypad
                0x000000008173a6e2       0x14 common/built-in.o
 .rodata.usb_kbd_numkey
                0x000000008173a6f6       0x1b common/built-in.o
 .rodata.usb_kbd_numkey_shifted
                0x000000008173a711       0x1b common/built-in.o
 .rodata.usb_kbd_probe.str1.1
                0x000000008173a72c       0x5c common/built-in.o
                                         0x62 (size before relaxing)
 .rodata.usb_kbd_remove.str1.1
                0x000000008173a788       0x1b common/built-in.o
 .rodata.usb_mass_storage_probe.str1.1
                0x000000008173a7a3       0x2d common/built-in.o
 .rodata.usb_scan_bus.isra.3.str1.1
                0x000000008173a7d0       0x4d drivers/usb/host/built-in.o
                                         0x5f (size before relaxing)
 .rodata.usb_scan_device.str1.1
                0x000000008173a81d       0x2a drivers/usb/host/built-in.o
 .rodata.usb_select_config.str1.1
                0x000000008173a847      0x220 common/built-in.o
 .rodata.usb_set_interface.str1.1
                0x000000008173aa67       0x1f common/built-in.o
 .rodata.usb_setup_descriptor.str1.1
                0x000000008173aa86       0x1d common/built-in.o
 .rodata.usb_setup_device.str1.1
                0x000000008173aaa3       0x68 common/built-in.o
 .rodata.usb_show_tree_graph.str1.1
                0x000000008173ab0b       0x2f cmd/built-in.o
                                         0x3a (size before relaxing)
 .rodata.usb_stor_CBI_get_status.isra.2.str1.1
                0x000000008173ab3a       0x1f common/built-in.o
 .rodata.usb_stor_CB_transport.str1.1
                0x000000008173ab59       0x6e common/built-in.o
 .rodata.usb_stor_get_info.str1.1
                0x000000008173abc7       0x5d common/built-in.o
 .rodata.usb_stor_info.str1.1
                0x000000008173ac24       0x32 common/built-in.o
                                         0x40 (size before relaxing)
 .rodata.usb_stor_scan.str1.1
                0x000000008173ac56       0x48 common/built-in.o
 .rodata.usb_storage_probe.str1.1
                0x000000008173ac9e       0x5c common/built-in.o
 .rodata.uuid_bin_to_str.str1.1
                0x000000008173acfa       0x2a lib/built-in.o
                                          0x5 (size before relaxing)
 .rodata.valid_elf_image.str1.1
                0x000000008173acfa       0x52 cmd/built-in.o
 .rodata.validate_gpt_entries.str1.1
                0x000000008173ad4c       0x40 disk/built-in.o
 .rodata.validate_gpt_header.str1.1
                0x000000008173ad8c       0xe1 disk/built-in.o
 .rodata.var_complete.str1.1
                0x000000008173ae6d        0x1 common/built-in.o
 .rodata.version_string
                0x000000008173ae6d       0x43 cmd/built-in.o
                0x000000008173ae6d                version_string
 .rodata.write_gpt_table.str1.1
                0x000000008173aeb0       0x55 disk/built-in.o
 .rodata.write_smbios_table.str1.1
                0x000000008173af05        0xb lib/built-in.o
 .rodata.xmalloc.str1.1
                0x000000008173af10       0x1e common/built-in.o
 .rodata.xyzModem_error.str1.1
                0x000000008173af2e        0xe common/built-in.o
 .rodata.xyzModem_stream_close.str1.1
                0x000000008173af3c       0x47 common/built-in.o
                                         0x4b (size before relaxing)
 .rodata.xyzModem_stream_open.str1.1
                0x000000008173af83        0x2 common/built-in.o
 .rodata.zunzip.str1.1
                0x000000008173af83       0x47 lib/built-in.o

.hash           0x000000008173afcc       0x18
 .hash          0x000000008173afcc       0x18 arch/arm/cpu/arm926ejs/start.o
                0x000000008173afe4                . = ALIGN (0x4)

.data           0x000000008173afe4     0x1bb8
 *(.data*)
 .data.rel.ro   0x000000008173afe4        0x0 arch/arm/cpu/arm926ejs/start.o
 .data.sunxi_usb_phy
                0x000000008173afe4       0x40 arch/arm/mach-sunxi/built-in.o
 .data.bootm_help_text
                0x000000008173b024      0x38b cmd/built-in.o
 *fill*         0x000000008173b3af        0x1 
 .data.cmd_bootm_sub
                0x000000008173b3b0       0xfc cmd/built-in.o
 .data.source_help_text
                0x000000008173b4ac       0x4e cmd/built-in.o
 .data.bootefi_help_text
                0x000000008173b4fa      0x180 cmd/built-in.o
 .data.bootz_help_text
                0x000000008173b67a      0x208 cmd/built-in.o
 .data.fdt_help_text
                0x000000008173b882      0x687 cmd/built-in.o
 .data.root.8051
                0x000000008173bf09        0x2 cmd/built-in.o
 .data.tabs.8139
                0x000000008173bf0b       0x21 cmd/built-in.o
 .data.do_echo  0x000000008173bf2c        0x4 cmd/built-in.o
 .data.dp_last_length
                0x000000008173bf30        0x4 cmd/built-in.o
 .data.cmd_mmc  0x000000008173bf34      0x118 cmd/built-in.o
 .data.curr_device
                0x000000008173c04c        0x4 cmd/built-in.o
 .data.cmd_pxe_sub
                0x000000008173c050       0x38 cmd/built-in.o
 .data.pxe_default_paths
                0x000000008173c088       0x10 cmd/built-in.o
                0x000000008173c088                pxe_default_paths
 .data.usb_stor_curr_dev
                0x000000008173c098        0x4 cmd/built-in.o
 .data.imgextract_help_text
                0x000000008173c09c       0x55 cmd/built-in.o
 *fill*         0x000000008173c0f1        0x3 
 .data.cmd_env_sub
                0x000000008173c0f4      0x118 cmd/built-in.o
 .data.env_help_text
                0x000000008173c20c      0x24f cmd/built-in.o
 *fill*         0x000000008173c45b        0x1 
 .data.env_id   0x000000008173c45c        0x4 cmd/built-in.o
 .data.reserved_list
                0x000000008173c460       0x84 common/built-in.o
 .data.init_sequence_r
                0x000000008173c4e4       0x74 common/built-in.o
 .data.of_busses
                0x000000008173c558       0x18 common/built-in.o
 .data.usb_scan_list
                0x000000008173c570        0x8 common/built-in.o
 .data.hist_cur
                0x000000008173c578        0x4 common/built-in.o
 .data.av_      0x000000008173c57c      0x408 common/built-in.o
 .data.sbrk_base
                0x000000008173c984        0x4 common/built-in.o
 .data.trim_threshold
                0x000000008173c988        0x4 common/built-in.o
 .data.load_addr
                0x000000008173c98c        0x4 common/built-in.o
                0x000000008173c98c                load_addr
 .data.stdio_names
                0x000000008173c990        0xc common/built-in.o
                0x000000008173c990                stdio_names
 .data.system_guid
                0x000000008173c99c       0x10 disk/built-in.o
 .data.cur_dev_num
                0x000000008173c9ac        0x4 drivers/built-in.o
 .data.sun50i_a64_data
                0x000000008173c9b0        0x4 drivers/spi/built-in.o
 .data.sun6i_a31_data
                0x000000008173c9b4        0x4 drivers/spi/built-in.o
 .data.env_htab
                0x000000008173c9b8       0x10 env/built-in.o
                0x000000008173c9b8                env_htab
 .data.first_call
                0x000000008173c9c8        0x8 env/built-in.o
 .data.fstypes  0x000000008173c9d0       0xa8 fs/built-in.o
 .data.ext4fs_indir1_blkno
                0x000000008173ca78        0x4 fs/built-in.o
                0x000000008173ca78                ext4fs_indir1_blkno
 .data.ext4fs_indir2_blkno
                0x000000008173ca7c        0x4 fs/built-in.o
                0x000000008173ca7c                ext4fs_indir2_blkno
 .data.ext4fs_indir3_blkno
                0x000000008173ca80        0x4 fs/built-in.o
                0x000000008173ca80                ext4fs_indir3_blkno
 .data.efi_is_direct_boot
                0x000000008173ca84        0x1 lib/built-in.o
 *fill*         0x000000008173ca85        0x3 
 .data.efi_obj_list
                0x000000008173ca88        0x8 lib/built-in.o
                0x000000008173ca88                efi_obj_list
 .data.efi_tpl  0x000000008173ca90        0x4 lib/built-in.o
 .data.efi_runtime_mmio
                0x000000008173ca94        0x8 lib/built-in.o
                0x000000008173ca94                efi_runtime_mmio
 .data.lastoff.10047
                0x000000008173ca9c        0x4 lib/built-in.o
 .data.efi_con_in
                0x000000008173caa0        0xc lib/built-in.o
                0x000000008173caa0                efi_con_in
 .data.efi_con_mode
                0x000000008173caac       0x18 lib/built-in.o
 .data.efi_con_out
                0x000000008173cac4       0x28 lib/built-in.o
                0x000000008173cac4                efi_con_out
 .data.efi_console_control
                0x000000008173caec        0xc lib/built-in.o
                0x000000008173caec                efi_console_control
 .data.efi_cout_modes
                0x000000008173caf8       0x24 lib/built-in.o
 .data.efi_mem  0x000000008173cb1c        0x8 lib/built-in.o
                0x000000008173cb1c                efi_mem
 .data.y        0x000000008173cb24        0x4 lib/built-in.o
 .data.first_call.7677
                0x000000008173cb28        0x4 net/built-in.o
 .data.net_native_vlan
                0x000000008173cb2c        0x2 net/built-in.o
                0x000000008173cb2c                net_native_vlan
 .data.net_our_vlan
                0x000000008173cb2e        0x2 net/built-in.o
                0x000000008173cb2e                net_our_vlan
 .data.nfs_offset
                0x000000008173cb30        0x4 net/built-in.o
 .data.supported_nfs_versions
                0x000000008173cb34        0x1 net/built-in.o
 *fill*         0x000000008173cb35        0x1 
 .data.tftp_block_size
                0x000000008173cb36        0x2 net/built-in.o
 .data.tftp_block_size_option
                0x000000008173cb38        0x2 net/built-in.o
 *fill*         0x000000008173cb3a        0x2 
 .data.tftp_timeout_count_max
                0x000000008173cb3c        0x4 net/built-in.o
                0x000000008173cb3c                tftp_timeout_count_max
 .data.timeout_count_max
                0x000000008173cb40        0x4 net/built-in.o
 .data.timeout_ms
                0x000000008173cb44        0x4 net/built-in.o
 .data.test_commands
                0x000000008173cb48       0x54 test/dm/built-in.o

.got            0x000000008173cb9c        0x0
 .got           0x000000008173cb9c        0x0 arch/arm/cpu/arm926ejs/start.o

.got.plt        0x000000008173cb9c        0xc
 .got.plt       0x000000008173cb9c        0xc arch/arm/cpu/arm926ejs/start.o
                0x000000008173cb9c                _GLOBAL_OFFSET_TABLE_

.igot.plt       0x000000008173cba8        0x0
 .igot.plt      0x000000008173cba8        0x0 arch/arm/cpu/arm926ejs/start.o
                0x000000008173cba8                . = ALIGN (0x4)
                0x000000008173cba8                . = .
                0x000000008173cba8                . = ALIGN (0x4)

.u_boot_list    0x000000008173cba8      0xfa0
 *(SORT(.u_boot_list*))
 .u_boot_list_2_blk_driver_1
                0x000000008173cba8        0x0 drivers/built-in.o
 .u_boot_list_2_blk_driver_2_mmc
                0x000000008173cba8       0x18 drivers/built-in.o
                0x000000008173cba8                _u_boot_list_2_blk_driver_2_mmc
 .u_boot_list_2_blk_driver_2_usb
                0x000000008173cbc0       0x18 common/built-in.o
                0x000000008173cbc0                _u_boot_list_2_blk_driver_2_usb
 .u_boot_list_2_blk_driver_3
                0x000000008173cbd8        0x0 drivers/built-in.o
 .u_boot_list_2_cmd_1
                0x000000008173cbd8        0x0 cmd/built-in.o
 .u_boot_list_2_cmd_1
                0x000000008173cbd8        0x0 common/built-in.o
 .u_boot_list_2_cmd_2_base
                0x000000008173cbd8       0x1c cmd/built-in.o
                0x000000008173cbd8                _u_boot_list_2_cmd_2_base
 .u_boot_list_2_cmd_2_bdinfo
                0x000000008173cbf4       0x1c cmd/built-in.o
                0x000000008173cbf4                _u_boot_list_2_cmd_2_bdinfo
 .u_boot_list_2_cmd_2_boot
                0x000000008173cc10       0x1c cmd/built-in.o
                0x000000008173cc10                _u_boot_list_2_cmd_2_boot
 .u_boot_list_2_cmd_2_bootd
                0x000000008173cc2c       0x1c cmd/built-in.o
                0x000000008173cc2c                _u_boot_list_2_cmd_2_bootd
 .u_boot_list_2_cmd_2_bootefi
                0x000000008173cc48       0x1c cmd/built-in.o
                0x000000008173cc48                _u_boot_list_2_cmd_2_bootefi
 .u_boot_list_2_cmd_2_bootelf
                0x000000008173cc64       0x1c cmd/built-in.o
                0x000000008173cc64                _u_boot_list_2_cmd_2_bootelf
 .u_boot_list_2_cmd_2_bootm
                0x000000008173cc80       0x1c cmd/built-in.o
                0x000000008173cc80                _u_boot_list_2_cmd_2_bootm
 .u_boot_list_2_cmd_2_bootp
                0x000000008173cc9c       0x1c cmd/built-in.o
                0x000000008173cc9c                _u_boot_list_2_cmd_2_bootp
 .u_boot_list_2_cmd_2_bootvx
                0x000000008173ccb8       0x1c cmd/built-in.o
                0x000000008173ccb8                _u_boot_list_2_cmd_2_bootvx
 .u_boot_list_2_cmd_2_bootz
                0x000000008173ccd4       0x1c cmd/built-in.o
                0x000000008173ccd4                _u_boot_list_2_cmd_2_bootz
 .u_boot_list_2_cmd_2_cmp
                0x000000008173ccf0       0x1c cmd/built-in.o
                0x000000008173ccf0                _u_boot_list_2_cmd_2_cmp
 .u_boot_list_2_cmd_2_coninfo
                0x000000008173cd0c       0x1c cmd/built-in.o
                0x000000008173cd0c                _u_boot_list_2_cmd_2_coninfo
 .u_boot_list_2_cmd_2_cp
                0x000000008173cd28       0x1c cmd/built-in.o
                0x000000008173cd28                _u_boot_list_2_cmd_2_cp
 .u_boot_list_2_cmd_2_dhcp
                0x000000008173cd44       0x1c cmd/built-in.o
                0x000000008173cd44                _u_boot_list_2_cmd_2_dhcp
 .u_boot_list_2_cmd_2_dm
                0x000000008173cd60       0x1c test/dm/built-in.o
                0x000000008173cd60                _u_boot_list_2_cmd_2_dm
 .u_boot_list_2_cmd_2_echo
                0x000000008173cd7c       0x1c cmd/built-in.o
                0x000000008173cd7c                _u_boot_list_2_cmd_2_echo
 .u_boot_list_2_cmd_2_editenv
                0x000000008173cd98       0x1c cmd/built-in.o
                0x000000008173cd98                _u_boot_list_2_cmd_2_editenv
 .u_boot_list_2_cmd_2_env
                0x000000008173cdb4       0x1c cmd/built-in.o
                0x000000008173cdb4                _u_boot_list_2_cmd_2_env
 .u_boot_list_2_cmd_2_erase
                0x000000008173cdd0       0x1c cmd/built-in.o
                0x000000008173cdd0                _u_boot_list_2_cmd_2_erase
 .u_boot_list_2_cmd_2_exit
                0x000000008173cdec       0x1c cmd/built-in.o
                0x000000008173cdec                _u_boot_list_2_cmd_2_exit
 .u_boot_list_2_cmd_2_ext2load
                0x000000008173ce08       0x1c cmd/built-in.o
                0x000000008173ce08                _u_boot_list_2_cmd_2_ext2load
 .u_boot_list_2_cmd_2_ext2ls
                0x000000008173ce24       0x1c cmd/built-in.o
                0x000000008173ce24                _u_boot_list_2_cmd_2_ext2ls
 .u_boot_list_2_cmd_2_ext4load
                0x000000008173ce40       0x1c cmd/built-in.o
                0x000000008173ce40                _u_boot_list_2_cmd_2_ext4load
 .u_boot_list_2_cmd_2_ext4ls
                0x000000008173ce5c       0x1c cmd/built-in.o
                0x000000008173ce5c                _u_boot_list_2_cmd_2_ext4ls
 .u_boot_list_2_cmd_2_ext4size
                0x000000008173ce78       0x1c cmd/built-in.o
                0x000000008173ce78                _u_boot_list_2_cmd_2_ext4size
 .u_boot_list_2_cmd_2_false
                0x000000008173ce94       0x1c cmd/built-in.o
                0x000000008173ce94                _u_boot_list_2_cmd_2_false
 .u_boot_list_2_cmd_2_fatinfo
                0x000000008173ceb0       0x1c cmd/built-in.o
                0x000000008173ceb0                _u_boot_list_2_cmd_2_fatinfo
 .u_boot_list_2_cmd_2_fatload
                0x000000008173cecc       0x1c cmd/built-in.o
                0x000000008173cecc                _u_boot_list_2_cmd_2_fatload
 .u_boot_list_2_cmd_2_fatls
                0x000000008173cee8       0x1c cmd/built-in.o
                0x000000008173cee8                _u_boot_list_2_cmd_2_fatls
 .u_boot_list_2_cmd_2_fatsize
                0x000000008173cf04       0x1c cmd/built-in.o
                0x000000008173cf04                _u_boot_list_2_cmd_2_fatsize
 .u_boot_list_2_cmd_2_fatwrite
                0x000000008173cf20       0x1c cmd/built-in.o
                0x000000008173cf20                _u_boot_list_2_cmd_2_fatwrite
 .u_boot_list_2_cmd_2_fdt
                0x000000008173cf3c       0x1c cmd/built-in.o
                0x000000008173cf3c                _u_boot_list_2_cmd_2_fdt
 .u_boot_list_2_cmd_2_flinfo
                0x000000008173cf58       0x1c cmd/built-in.o
                0x000000008173cf58                _u_boot_list_2_cmd_2_flinfo
 .u_boot_list_2_cmd_2_fstype
                0x000000008173cf74       0x1c cmd/built-in.o
                0x000000008173cf74                _u_boot_list_2_cmd_2_fstype
 .u_boot_list_2_cmd_2_go
                0x000000008173cf90       0x1c cmd/built-in.o
                0x000000008173cf90                _u_boot_list_2_cmd_2_go
 .u_boot_list_2_cmd_2_gpio
                0x000000008173cfac       0x1c cmd/built-in.o
                0x000000008173cfac                _u_boot_list_2_cmd_2_gpio
 .u_boot_list_2_cmd_2_gpt
                0x000000008173cfc8       0x1c cmd/built-in.o
                0x000000008173cfc8                _u_boot_list_2_cmd_2_gpt
 .u_boot_list_2_cmd_2_help
                0x000000008173cfe4       0x1c cmd/built-in.o
                0x000000008173cfe4                _u_boot_list_2_cmd_2_help
 .u_boot_list_2_cmd_2_iminfo
                0x000000008173d000       0x1c cmd/built-in.o
                0x000000008173d000                _u_boot_list_2_cmd_2_iminfo
 .u_boot_list_2_cmd_2_imxtract
                0x000000008173d01c       0x1c cmd/built-in.o
                0x000000008173d01c                _u_boot_list_2_cmd_2_imxtract
 .u_boot_list_2_cmd_2_itest
                0x000000008173d038       0x1c cmd/built-in.o
                0x000000008173d038                _u_boot_list_2_cmd_2_itest
 .u_boot_list_2_cmd_2_load
                0x000000008173d054       0x1c cmd/built-in.o
                0x000000008173d054                _u_boot_list_2_cmd_2_load
 .u_boot_list_2_cmd_2_loadb
                0x000000008173d070       0x1c cmd/built-in.o
                0x000000008173d070                _u_boot_list_2_cmd_2_loadb
 .u_boot_list_2_cmd_2_loads
                0x000000008173d08c       0x1c cmd/built-in.o
                0x000000008173d08c                _u_boot_list_2_cmd_2_loads
 .u_boot_list_2_cmd_2_loadx
                0x000000008173d0a8       0x1c cmd/built-in.o
                0x000000008173d0a8                _u_boot_list_2_cmd_2_loadx
 .u_boot_list_2_cmd_2_loady
                0x000000008173d0c4       0x1c cmd/built-in.o
                0x000000008173d0c4                _u_boot_list_2_cmd_2_loady
 .u_boot_list_2_cmd_2_loop
                0x000000008173d0e0       0x1c cmd/built-in.o
                0x000000008173d0e0                _u_boot_list_2_cmd_2_loop
 .u_boot_list_2_cmd_2_ls
                0x000000008173d0fc       0x1c cmd/built-in.o
                0x000000008173d0fc                _u_boot_list_2_cmd_2_ls
 .u_boot_list_2_cmd_2_md
                0x000000008173d118       0x1c cmd/built-in.o
                0x000000008173d118                _u_boot_list_2_cmd_2_md
 .u_boot_list_2_cmd_2_mii
                0x000000008173d134       0x1c cmd/built-in.o
                0x000000008173d134                _u_boot_list_2_cmd_2_mii
 .u_boot_list_2_cmd_2_mm
                0x000000008173d150       0x1c cmd/built-in.o
                0x000000008173d150                _u_boot_list_2_cmd_2_mm
 .u_boot_list_2_cmd_2_mmc
                0x000000008173d16c       0x1c cmd/built-in.o
                0x000000008173d16c                _u_boot_list_2_cmd_2_mmc
 .u_boot_list_2_cmd_2_mmcinfo
                0x000000008173d188       0x1c cmd/built-in.o
                0x000000008173d188                _u_boot_list_2_cmd_2_mmcinfo
 .u_boot_list_2_cmd_2_mw
                0x000000008173d1a4       0x1c cmd/built-in.o
                0x000000008173d1a4                _u_boot_list_2_cmd_2_mw
 .u_boot_list_2_cmd_2_nfs
                0x000000008173d1c0       0x1c cmd/built-in.o
                0x000000008173d1c0                _u_boot_list_2_cmd_2_nfs
 .u_boot_list_2_cmd_2_nm
                0x000000008173d1dc       0x1c cmd/built-in.o
                0x000000008173d1dc                _u_boot_list_2_cmd_2_nm
 .u_boot_list_2_cmd_2_part
                0x000000008173d1f8       0x1c cmd/built-in.o
                0x000000008173d1f8                _u_boot_list_2_cmd_2_part
 .u_boot_list_2_cmd_2_ping
                0x000000008173d214       0x1c cmd/built-in.o
                0x000000008173d214                _u_boot_list_2_cmd_2_ping
 .u_boot_list_2_cmd_2_printenv
                0x000000008173d230       0x1c cmd/built-in.o
                0x000000008173d230                _u_boot_list_2_cmd_2_printenv
 .u_boot_list_2_cmd_2_protect
                0x000000008173d24c       0x1c cmd/built-in.o
                0x000000008173d24c                _u_boot_list_2_cmd_2_protect
 .u_boot_list_2_cmd_2_pxe
                0x000000008173d268       0x1c cmd/built-in.o
                0x000000008173d268                _u_boot_list_2_cmd_2_pxe
 .u_boot_list_2_cmd_2_question_mark
                0x000000008173d284       0x1c cmd/built-in.o
                0x000000008173d284                _u_boot_list_2_cmd_2_question_mark
 .u_boot_list_2_cmd_2_reset
                0x000000008173d2a0       0x1c cmd/built-in.o
                0x000000008173d2a0                _u_boot_list_2_cmd_2_reset
 .u_boot_list_2_cmd_2_run
                0x000000008173d2bc       0x1c cmd/built-in.o
                0x000000008173d2bc                _u_boot_list_2_cmd_2_run
 .u_boot_list_2_cmd_2_save
                0x000000008173d2d8       0x1c cmd/built-in.o
                0x000000008173d2d8                _u_boot_list_2_cmd_2_save
 .u_boot_list_2_cmd_2_saveenv
                0x000000008173d2f4       0x1c cmd/built-in.o
                0x000000008173d2f4                _u_boot_list_2_cmd_2_saveenv
 .u_boot_list_2_cmd_2_setenv
                0x000000008173d310       0x1c cmd/built-in.o
                0x000000008173d310                _u_boot_list_2_cmd_2_setenv
 .u_boot_list_2_cmd_2_setexpr
                0x000000008173d32c       0x1c cmd/built-in.o
                0x000000008173d32c                _u_boot_list_2_cmd_2_setexpr
 .u_boot_list_2_cmd_2_showvar
                0x000000008173d348       0x1c common/built-in.o
                0x000000008173d348                _u_boot_list_2_cmd_2_showvar
 .u_boot_list_2_cmd_2_size
                0x000000008173d364       0x1c cmd/built-in.o
                0x000000008173d364                _u_boot_list_2_cmd_2_size
 .u_boot_list_2_cmd_2_source
                0x000000008173d380       0x1c cmd/built-in.o
                0x000000008173d380                _u_boot_list_2_cmd_2_source
 .u_boot_list_2_cmd_2_sysboot
                0x000000008173d39c       0x1c cmd/built-in.o
                0x000000008173d39c                _u_boot_list_2_cmd_2_sysboot
 .u_boot_list_2_cmd_2_test
                0x000000008173d3b8       0x1c cmd/built-in.o
                0x000000008173d3b8                _u_boot_list_2_cmd_2_test
 .u_boot_list_2_cmd_2_tftpboot
                0x000000008173d3d4       0x1c cmd/built-in.o
                0x000000008173d3d4                _u_boot_list_2_cmd_2_tftpboot
 .u_boot_list_2_cmd_2_true
                0x000000008173d3f0       0x1c cmd/built-in.o
                0x000000008173d3f0                _u_boot_list_2_cmd_2_true
 .u_boot_list_2_cmd_2_usb
                0x000000008173d40c       0x1c cmd/built-in.o
                0x000000008173d40c                _u_boot_list_2_cmd_2_usb
 .u_boot_list_2_cmd_2_usbboot
                0x000000008173d428       0x1c cmd/built-in.o
                0x000000008173d428                _u_boot_list_2_cmd_2_usbboot
 .u_boot_list_2_cmd_2_version
                0x000000008173d444       0x1c cmd/built-in.o
                0x000000008173d444                _u_boot_list_2_cmd_2_version
 .u_boot_list_2_cmd_3
                0x000000008173d460        0x0 cmd/built-in.o
 .u_boot_list_2_cmd_3
                0x000000008173d460        0x0 common/built-in.o
 .u_boot_list_2_driver_1
                0x000000008173d460        0x0 drivers/built-in.o
 .u_boot_list_2_driver_2_gpio_sunxi
                0x000000008173d460       0x44 drivers/gpio/built-in.o
                0x000000008173d460                _u_boot_list_2_driver_2_gpio_sunxi
 .u_boot_list_2_driver_2_ns16550_serial
                0x000000008173d4a4       0x44 drivers/serial/built-in.o
                0x000000008173d4a4                _u_boot_list_2_driver_2_ns16550_serial
 .u_boot_list_2_driver_2_root_driver
                0x000000008173d4e8       0x44 drivers/built-in.o
                0x000000008173d4e8                _u_boot_list_2_driver_2_root_driver
 .u_boot_list_2_driver_2_simple_bus_drv
                0x000000008173d52c       0x44 drivers/built-in.o
                0x000000008173d52c                _u_boot_list_2_driver_2_simple_bus_drv
 .u_boot_list_2_driver_2_spi_generic_drv
                0x000000008173d570       0x44 drivers/spi/built-in.o
                0x000000008173d570                _u_boot_list_2_driver_2_spi_generic_drv
 .u_boot_list_2_driver_2_sunxi_spi
                0x000000008173d5b4       0x44 drivers/spi/built-in.o
                0x000000008173d5b4                _u_boot_list_2_driver_2_sunxi_spi
 .u_boot_list_2_driver_2_usb_dev_generic_drv
                0x000000008173d5f8       0x44 drivers/usb/host/built-in.o
                0x000000008173d5f8                _u_boot_list_2_driver_2_usb_dev_generic_drv
 .u_boot_list_2_driver_2_usb_generic_hub
                0x000000008173d63c       0x44 common/built-in.o
                0x000000008173d63c                _u_boot_list_2_driver_2_usb_generic_hub
 .u_boot_list_2_driver_2_usb_kbd
                0x000000008173d680       0x44 common/built-in.o
                0x000000008173d680                _u_boot_list_2_driver_2_usb_kbd
 .u_boot_list_2_driver_2_usb_mass_storage
                0x000000008173d6c4       0x44 common/built-in.o
                0x000000008173d6c4                _u_boot_list_2_driver_2_usb_mass_storage
 .u_boot_list_2_driver_3
                0x000000008173d708        0x0 drivers/built-in.o
 .u_boot_list_2_driver_info_1
                0x000000008173d708        0x0 drivers/built-in.o
 .u_boot_list_2_driver_info_3
                0x000000008173d708        0x0 drivers/built-in.o
 .u_boot_list_2_env_clbk_1
                0x000000008173d708        0x0 env/built-in.o
 .u_boot_list_2_env_clbk_2_baudrate
                0x000000008173d708        0x8 drivers/serial/built-in.o
                0x000000008173d708                _u_boot_list_2_env_clbk_2_baudrate
 .u_boot_list_2_env_clbk_2_bootfile
                0x000000008173d710        0x8 net/built-in.o
                0x000000008173d710                _u_boot_list_2_env_clbk_2_bootfile
 .u_boot_list_2_env_clbk_2_callbacks
                0x000000008173d718        0x8 env/built-in.o
                0x000000008173d718                _u_boot_list_2_env_clbk_2_callbacks
 .u_boot_list_2_env_clbk_2_console
                0x000000008173d720        0x8 common/built-in.o
                0x000000008173d720                _u_boot_list_2_env_clbk_2_console
 .u_boot_list_2_env_clbk_2_ethaddr
                0x000000008173d728        0x8 net/built-in.o
                0x000000008173d728                _u_boot_list_2_env_clbk_2_ethaddr
 .u_boot_list_2_env_clbk_2_flags
                0x000000008173d730        0x8 env/built-in.o
                0x000000008173d730                _u_boot_list_2_env_clbk_2_flags
 .u_boot_list_2_env_clbk_2_gatewayip
                0x000000008173d738        0x8 net/built-in.o
                0x000000008173d738                _u_boot_list_2_env_clbk_2_gatewayip
 .u_boot_list_2_env_clbk_2_ipaddr
                0x000000008173d740        0x8 net/built-in.o
                0x000000008173d740                _u_boot_list_2_env_clbk_2_ipaddr
 .u_boot_list_2_env_clbk_2_loadaddr
                0x000000008173d748        0x8 common/built-in.o
                0x000000008173d748                _u_boot_list_2_env_clbk_2_loadaddr
 .u_boot_list_2_env_clbk_2_netmask
                0x000000008173d750        0x8 net/built-in.o
                0x000000008173d750                _u_boot_list_2_env_clbk_2_netmask
 .u_boot_list_2_env_clbk_2_nvlan
                0x000000008173d758        0x8 net/built-in.o
                0x000000008173d758                _u_boot_list_2_env_clbk_2_nvlan
 .u_boot_list_2_env_clbk_2_serverip
                0x000000008173d760        0x8 net/built-in.o
                0x000000008173d760                _u_boot_list_2_env_clbk_2_serverip
 .u_boot_list_2_env_clbk_2_vlan
                0x000000008173d768        0x8 net/built-in.o
                0x000000008173d768                _u_boot_list_2_env_clbk_2_vlan
 .u_boot_list_2_env_clbk_3
                0x000000008173d770        0x0 env/built-in.o
 .u_boot_list_2_env_driver_1
                0x000000008173d770        0x0 env/built-in.o
 .u_boot_list_2_env_driver_2_mmc
                0x000000008173d770       0x18 env/built-in.o
                0x000000008173d770                _u_boot_list_2_env_driver_2_mmc
 .u_boot_list_2_env_driver_3
                0x000000008173d788        0x0 env/built-in.o
 .u_boot_list_2_part_driver_1
                0x000000008173d788        0x0 disk/built-in.o
 .u_boot_list_2_part_driver_2_a_efi
                0x000000008173d788       0x18 disk/built-in.o
                0x000000008173d788                _u_boot_list_2_part_driver_2_a_efi
 .u_boot_list_2_part_driver_2_dos
                0x000000008173d7a0       0x18 disk/built-in.o
                0x000000008173d7a0                _u_boot_list_2_part_driver_2_dos
 .u_boot_list_2_part_driver_2_iso
                0x000000008173d7b8       0x18 disk/built-in.o
                0x000000008173d7b8                _u_boot_list_2_part_driver_2_iso
 .u_boot_list_2_part_driver_3
                0x000000008173d7d0        0x0 disk/built-in.o
 .u_boot_list_2_uclass_1
                0x000000008173d7d0        0x0 drivers/built-in.o
 .u_boot_list_2_uclass_2_eth
                0x000000008173d7d0       0x48 net/built-in.o
                0x000000008173d7d0                _u_boot_list_2_uclass_2_eth
 .u_boot_list_2_uclass_2_gpio
                0x000000008173d818       0x48 drivers/gpio/built-in.o
                0x000000008173d818                _u_boot_list_2_uclass_2_gpio
 .u_boot_list_2_uclass_2_keyboard
                0x000000008173d860       0x48 drivers/built-in.o
                0x000000008173d860                _u_boot_list_2_uclass_2_keyboard
 .u_boot_list_2_uclass_2_root
                0x000000008173d8a8       0x48 drivers/built-in.o
                0x000000008173d8a8                _u_boot_list_2_uclass_2_root
 .u_boot_list_2_uclass_2_serial
                0x000000008173d8f0       0x48 drivers/serial/built-in.o
                0x000000008173d8f0                _u_boot_list_2_uclass_2_serial
 .u_boot_list_2_uclass_2_simple_bus
                0x000000008173d938       0x48 drivers/built-in.o
                0x000000008173d938                _u_boot_list_2_uclass_2_simple_bus
 .u_boot_list_2_uclass_2_spi
                0x000000008173d980       0x48 drivers/spi/built-in.o
                0x000000008173d980                _u_boot_list_2_uclass_2_spi
 .u_boot_list_2_uclass_2_spi_generic
                0x000000008173d9c8       0x48 drivers/spi/built-in.o
                0x000000008173d9c8                _u_boot_list_2_uclass_2_spi_generic
 .u_boot_list_2_uclass_2_usb
                0x000000008173da10       0x48 drivers/usb/host/built-in.o
                0x000000008173da10                _u_boot_list_2_uclass_2_usb
 .u_boot_list_2_uclass_2_usb_dev_generic
                0x000000008173da58       0x48 drivers/usb/host/built-in.o
                0x000000008173da58                _u_boot_list_2_uclass_2_usb_dev_generic
 .u_boot_list_2_uclass_2_usb_hub
                0x000000008173daa0       0x48 common/built-in.o
                0x000000008173daa0                _u_boot_list_2_uclass_2_usb_hub
 .u_boot_list_2_uclass_2_usb_mass_storage
                0x000000008173dae8       0x48 common/built-in.o
                0x000000008173dae8                _u_boot_list_2_uclass_2_usb_mass_storage
 .u_boot_list_2_uclass_3
                0x000000008173db30        0x0 drivers/built-in.o
 .u_boot_list_2_usb_driver_entry_1
                0x000000008173db30        0x0 drivers/usb/host/built-in.o
 .u_boot_list_2_usb_driver_entry_2_usb_generic_hub
                0x000000008173db30        0x8 common/built-in.o
                0x000000008173db30                _u_boot_list_2_usb_driver_entry_2_usb_generic_hub
 .u_boot_list_2_usb_driver_entry_2_usb_kbd
                0x000000008173db38        0x8 common/built-in.o
                0x000000008173db38                _u_boot_list_2_usb_driver_entry_2_usb_kbd
 .u_boot_list_2_usb_driver_entry_2_usb_mass_storage
                0x000000008173db40        0x8 common/built-in.o
                0x000000008173db40                _u_boot_list_2_usb_driver_entry_2_usb_mass_storage
 .u_boot_list_2_usb_driver_entry_3
                0x000000008173db48        0x0 drivers/usb/host/built-in.o
                0x000000008173db48                . = ALIGN (0x4)

.__efi_runtime_start
                0x000000008173db48        0x0
 *(.__efi_runtime_start)
 .__efi_runtime_start
                0x000000008173db48        0x0 arch/arm/lib/built-in.o

.efi_runtime    0x000000008173db48      0x100
 *(efi_runtime_text)
 efi_runtime_text
                0x000000008173db48       0x24 lib/built-in.o
                0x000000008173db48                efi_reset_system
                0x000000008173db4a                efi_get_time
 *(efi_runtime_data)
 *fill*         0x000000008173db6c        0x4 
 efi_runtime_data
                0x000000008173db70       0xd8 lib/built-in.o
                0x000000008173db70                systab
                0x000000008173dbf8                efi_runtime_services

.__efi_runtime_stop
                0x000000008173dc48        0x0
 *(.__efi_runtime_stop)
 .__efi_runtime_stop
                0x000000008173dc48        0x0 arch/arm/lib/built-in.o

.efi_runtime_rel_start
                0x000000008173dc48        0x0
 *(.__efi_runtime_rel_start)
 .__efi_runtime_rel_start
                0x000000008173dc48        0x0 arch/arm/lib/built-in.o

.efi_runtime_rel
                0x000000008173dc48       0x90
 *(.relefi_runtime_text)
 *(.relefi_runtime_data)
 .relefi_runtime_data
                0x000000008173dc48       0x90 arch/arm/cpu/arm926ejs/start.o

.efi_runtime_rel_stop
                0x000000008173dcd8        0x0
 *(.__efi_runtime_rel_stop)
 .__efi_runtime_rel_stop
                0x000000008173dcd8        0x0 arch/arm/lib/built-in.o
                0x000000008173dcd8                . = ALIGN (0x4)

.image_copy_end
                0x000000008173dcd8        0x0
 *(.__image_copy_end)
 .__image_copy_end
                0x000000008173dcd8        0x0 arch/arm/lib/built-in.o

.rel_dyn_start  0x000000008173dcd8        0x0
 *(.__rel_dyn_start)
 .__rel_dyn_start
                0x000000008173dcd8        0x0 arch/arm/lib/built-in.o

.rel.dyn        0x000000008173dcd8     0x84f8
 *(.rel*)
 .rel.got       0x000000008173dcd8        0x0 arch/arm/cpu/arm926ejs/start.o
 .rel.plt       0x000000008173dcd8        0x0 arch/arm/cpu/arm926ejs/start.o
 .rel.bss       0x000000008173dcd8        0x0 arch/arm/cpu/arm926ejs/start.o
 .rel.data.rel.ro
                0x000000008173dcd8        0x0 arch/arm/cpu/arm926ejs/start.o
 .rel.iplt      0x000000008173dcd8        0x0 arch/arm/cpu/arm926ejs/start.o
 .rel.text      0x000000008173dcd8       0x18 arch/arm/cpu/arm926ejs/start.o
 .rel.vectors   0x000000008173dcf0       0x38 arch/arm/cpu/arm926ejs/start.o
 .rel.text.relocate_vectors
                0x000000008173dd28       0x20 arch/arm/cpu/arm926ejs/start.o
 .rel.text.boot_jump_linux
                0x000000008173dd48       0x28 arch/arm/cpu/arm926ejs/start.o
 .rel.text.boot_prep_linux
                0x000000008173dd70       0x18 arch/arm/cpu/arm926ejs/start.o
 .rel.text.boot_prep_vxworks
                0x000000008173dd88       0x10 arch/arm/cpu/arm926ejs/start.o
 .rel.text.interrupt_init
                0x000000008173dd98        0x8 arch/arm/cpu/arm926ejs/start.o
 .rel.text.bad_mode
                0x000000008173dda0        0x8 arch/arm/cpu/arm926ejs/start.o
 .rel.text.show_regs
                0x000000008173dda8       0x60 arch/arm/cpu/arm926ejs/start.o
 .rel.text.do_undefined_instruction
                0x000000008173de08        0x8 arch/arm/cpu/arm926ejs/start.o
 .rel.text.do_software_interrupt
                0x000000008173de10        0x8 arch/arm/cpu/arm926ejs/start.o
 .rel.text.do_prefetch_abort
                0x000000008173de18        0x8 arch/arm/cpu/arm926ejs/start.o
 .rel.text.do_data_abort
                0x000000008173de20        0x8 arch/arm/cpu/arm926ejs/start.o
 .rel.text.do_not_used
                0x000000008173de28        0x8 arch/arm/cpu/arm926ejs/start.o
 .rel.text.do_fiq
                0x000000008173de30        0x8 arch/arm/cpu/arm926ejs/start.o
 .rel.text.do_irq
                0x000000008173de38        0x8 arch/arm/cpu/arm926ejs/start.o
 .rel.text.do_reset
                0x000000008173de40        0x8 arch/arm/cpu/arm926ejs/start.o
 .rel.text.enable_caches
                0x000000008173de48        0x0 arch/arm/cpu/arm926ejs/start.o
 .rel.text.check_cache_range
                0x000000008173de48        0x8 arch/arm/cpu/arm926ejs/start.o
 .rel.rodata    0x000000008173de50      0x100 arch/arm/cpu/arm926ejs/start.o
 .rel.text.sunxi_get_boot_device
                0x000000008173df50       0x10 arch/arm/cpu/arm926ejs/start.o
 .rel.text.print_cpuinfo
                0x000000008173df60        0x8 arch/arm/cpu/arm926ejs/start.o
 .rel.text.mctl_await_completion
                0x000000008173df68        0x0 arch/arm/cpu/arm926ejs/start.o
 .rel.text.sunxi_gpio_setup_dt_pins
                0x000000008173df68       0x48 arch/arm/cpu/arm926ejs/start.o
 .rel.text.sunxi_usb_phy_enable_squelch_detect
                0x000000008173dfb0        0x0 arch/arm/cpu/arm926ejs/start.o
 .rel.text.sunxi_usb_phy_init
                0x000000008173dfb0        0x0 arch/arm/cpu/arm926ejs/start.o
 .rel.text.sunxi_usb_phy_exit
                0x000000008173dfb0        0x0 arch/arm/cpu/arm926ejs/start.o
 .rel.text.sunxi_usb_phy_power_on
                0x000000008173dfb0        0x0 arch/arm/cpu/arm926ejs/start.o
 .rel.text.sunxi_usb_phy_power_off
                0x000000008173dfb0        0x0 arch/arm/cpu/arm926ejs/start.o
 .rel.text.sunxi_usb_phy_vbus_detect
                0x000000008173dfb0        0x0 arch/arm/cpu/arm926ejs/start.o
 .rel.text.sunxi_usb_phy_id_detect
                0x000000008173dfb0        0x0 arch/arm/cpu/arm926ejs/start.o
 .rel.text.sunxi_usb_phy_probe
                0x000000008173dfb0       0x28 arch/arm/cpu/arm926ejs/start.o
 .rel.text.sunxi_usb_phy_remove
                0x000000008173dfd8        0x0 arch/arm/cpu/arm926ejs/start.o
 .rel.text.setup_environment
                0x000000008173dfd8       0x28 arch/arm/cpu/arm926ejs/start.o
 .rel.text.board_init
                0x000000008173e000       0x18 arch/arm/cpu/arm926ejs/start.o
 .rel.text.get_board_serial
                0x000000008173e018        0x8 arch/arm/cpu/arm926ejs/start.o
 .rel.text.misc_init_r
                0x000000008173e020       0x40 arch/arm/cpu/arm926ejs/start.o
 .rel.text.do_go
                0x000000008173e060       0x10 arch/arm/cpu/arm926ejs/start.o
 .rel.text.do_bootm
                0x000000008173e070       0x18 arch/arm/cpu/arm926ejs/start.o
 .rel.text.do_bootd
                0x000000008173e088        0x8 arch/arm/cpu/arm926ejs/start.o
 .rel.text.image_info
                0x000000008173e090       0x40 arch/arm/cpu/arm926ejs/start.o
 .rel.text.do_iminfo
                0x000000008173e0d0        0x8 arch/arm/cpu/arm926ejs/start.o
 .rel.text.bootm_maybe_autostart
                0x000000008173e0d8       0x20 arch/arm/cpu/arm926ejs/start.o
 .rel.text.do_help
                0x000000008173e0f8       0x10 arch/arm/cpu/arm926ejs/start.o
 .rel.text.do_version
                0x000000008173e108       0x10 arch/arm/cpu/arm926ejs/start.o
 .rel.text.blk_common_cmd
                0x000000008173e118       0x70 arch/arm/cpu/arm926ejs/start.o
 .rel.text.source
                0x000000008173e188       0x38 arch/arm/cpu/arm926ejs/start.o
 .rel.text.do_source
                0x000000008173e1c0        0x8 arch/arm/cpu/arm926ejs/start.o
 .rel.text.print_num
                0x000000008173e1c8        0x8 arch/arm/cpu/arm926ejs/start.o
 .rel.text.do_bdinfo
                0x000000008173e1d0       0x68 arch/arm/cpu/arm926ejs/start.o
 .rel.text.efi_init_obj_list
                0x000000008173e238        0x8 arch/arm/cpu/arm926ejs/start.o
 .rel.text.do_bootefi_exec
                0x000000008173e240       0x58 arch/arm/cpu/arm926ejs/start.o
 .rel.text.do_bootefi
                0x000000008173e298       0x38 arch/arm/cpu/arm926ejs/start.o
 .rel.text.efi_set_bootdev
                0x000000008173e2d0       0x28 arch/arm/cpu/arm926ejs/start.o
 .rel.text.bootz_setup
                0x000000008173e2f8        0x0 arch/arm/cpu/arm926ejs/start.o
 .rel.text.do_bootz
                0x000000008173e2f8       0x18 arch/arm/cpu/arm926ejs/start.o
 .rel.text.do_coninfo
                0x000000008173e310       0x28 arch/arm/cpu/arm926ejs/start.o
 .rel.text.do_echo
                0x000000008173e338        0x8 arch/arm/cpu/arm926ejs/start.o
 .rel.text.valid_elf_image
                0x000000008173e340       0x10 arch/arm/cpu/arm926ejs/start.o
 .rel.text.do_bootelf
                0x000000008173e350       0x28 arch/arm/cpu/arm926ejs/start.o
 .rel.text.do_bootvx
                0x000000008173e378       0xe0 arch/arm/cpu/arm926ejs/start.o
 .rel.text.do_fat_fswrite
                0x000000008173e458       0x18 arch/arm/cpu/arm926ejs/start.o
 .rel.text.do_fat_fsinfo
                0x000000008173e470       0x10 arch/arm/cpu/arm926ejs/start.o
 .rel.text.fdt_valid
                0x000000008173e480       0x28 arch/arm/cpu/arm926ejs/start.o
 .rel.text.is_printable_string
                0x000000008173e4a8        0x8 arch/arm/cpu/arm926ejs/start.o
 .rel.text.print_data
                0x000000008173e4b0       0x58 arch/arm/cpu/arm926ejs/start.o
 .rel.text.set_working_fdt_addr
                0x000000008173e508       0x10 arch/arm/cpu/arm926ejs/start.o
 .rel.text.do_fdt
                0x000000008173e518      0x240 arch/arm/cpu/arm926ejs/start.o
 .rel.text.do_load_wrapper
                0x000000008173e758        0x8 arch/arm/cpu/arm926ejs/start.o
 .rel.text.gpio_get_description
                0x000000008173e760       0x18 arch/arm/cpu/arm926ejs/start.o
 .rel.text.do_gpio
                0x000000008173e778       0x50 arch/arm/cpu/arm926ejs/start.o
 .rel.text.binary_test
                0x000000008173e7c8       0x10 arch/arm/cpu/arm926ejs/start.o
 .rel.text.do_itest
                0x000000008173e7d8        0x8 arch/arm/cpu/arm926ejs/start.o
 .rel.text.bin_data_init
                0x000000008173e7e0       0x18 arch/arm/cpu/arm926ejs/start.o
 .rel.text.k_data_save
                0x000000008173e7f8       0x30 arch/arm/cpu/arm926ejs/start.o
 .rel.text.k_data_restore
                0x000000008173e828       0x30 arch/arm/cpu/arm926ejs/start.o
 .rel.text.load_serial_ymodem
                0x000000008173e858       0x20 arch/arm/cpu/arm926ejs/start.o
 .rel.text.bin_data_char
                0x000000008173e878       0x10 arch/arm/cpu/arm926ejs/start.o
 .rel.text.chk1.constprop.2
                0x000000008173e888        0x8 arch/arm/cpu/arm926ejs/start.o
 .rel.text.s1_sendpacket.constprop.3
                0x000000008173e890       0x18 arch/arm/cpu/arm926ejs/start.o
 .rel.text.load_serial
                0x000000008173e8a8       0x20 arch/arm/cpu/arm926ejs/start.o
 .rel.text.do_load_serial
                0x000000008173e8c8       0x30 arch/arm/cpu/arm926ejs/start.o
 .rel.text.do_load_serial_bin
                0x000000008173e8f8      0x118 arch/arm/cpu/arm926ejs/start.o
 .rel.text.do_mem_mw
                0x000000008173ea10        0x8 arch/arm/cpu/arm926ejs/start.o
 .rel.text.do_mem_md
                0x000000008173ea18       0x20 arch/arm/cpu/arm926ejs/start.o
 .rel.text.do_mem_cmp
                0x000000008173ea38       0x38 arch/arm/cpu/arm926ejs/start.o
 .rel.text.do_mem_base
                0x000000008173ea70       0x10 arch/arm/cpu/arm926ejs/start.o
 .rel.text.do_mem_cp
                0x000000008173ea80       0x10 arch/arm/cpu/arm926ejs/start.o
 .rel.text.mod_mem.isra.0
                0x000000008173ea90       0x48 arch/arm/cpu/arm926ejs/start.o
 .rel.text.do_mii
                0x000000008173ead8      0x170 arch/arm/cpu/arm926ejs/start.o
 .rel.text.do_mmcops
                0x000000008173ec48       0x18 arch/arm/cpu/arm926ejs/start.o
 .rel.text.init_mmc_device
                0x000000008173ec60        0x8 arch/arm/cpu/arm926ejs/start.o
 .rel.text.do_mmc_rescan
                0x000000008173ec68        0x8 arch/arm/cpu/arm926ejs/start.o
 .rel.text.do_mmc_hwpartition
                0x000000008173ec70       0xb0 arch/arm/cpu/arm926ejs/start.o
 .rel.text.do_mmc_dev
                0x000000008173ed20       0x38 arch/arm/cpu/arm926ejs/start.o
 .rel.text.do_mmc_read
                0x000000008173ed58       0x28 arch/arm/cpu/arm926ejs/start.o
 .rel.text.do_mmc_erase
                0x000000008173ed80       0x30 arch/arm/cpu/arm926ejs/start.o
 .rel.text.do_mmc_write
                0x000000008173edb0       0x30 arch/arm/cpu/arm926ejs/start.o
 .rel.text.do_mmcinfo
                0x000000008173ede0       0xf8 arch/arm/cpu/arm926ejs/start.o
 .rel.text.do_mmc_setdsr
                0x000000008173eed8       0x28 arch/arm/cpu/arm926ejs/start.o
 .rel.text.do_mmc_part
                0x000000008173ef00       0x10 arch/arm/cpu/arm926ejs/start.o
 .rel.text.netboot_common
                0x000000008173ef10       0x98 arch/arm/cpu/arm926ejs/start.o
 .rel.text.do_ping
                0x000000008173efa8       0x18 arch/arm/cpu/arm926ejs/start.o
 .rel.text.do_part_list
                0x000000008173efc0       0x28 arch/arm/cpu/arm926ejs/start.o
 .rel.text.do_part_start
                0x000000008173efe8       0x10 arch/arm/cpu/arm926ejs/start.o
 .rel.text.do_part_size
                0x000000008173eff8       0x10 arch/arm/cpu/arm926ejs/start.o
 .rel.text.do_part
                0x000000008173f008       0x28 arch/arm/cpu/arm926ejs/start.o
 .rel.text.do_pxe
                0x000000008173f030       0x10 arch/arm/cpu/arm926ejs/start.o
 .rel.text.label_print
                0x000000008173f040        0x8 arch/arm/cpu/arm926ejs/start.o
 .rel.text.do_get_tftp
                0x000000008173f048        0x8 arch/arm/cpu/arm926ejs/start.o
 .rel.text.from_env
                0x000000008173f050        0x8 arch/arm/cpu/arm926ejs/start.o
 .rel.text.get_string
                0x000000008173f058        0x8 arch/arm/cpu/arm926ejs/start.o
 .rel.text.get_token
                0x000000008173f060        0x8 arch/arm/cpu/arm926ejs/start.o
 .rel.text.parse_sliteral
                0x000000008173f068        0x8 arch/arm/cpu/arm926ejs/start.o
 .rel.text.parse_integer
                0x000000008173f070        0x8 arch/arm/cpu/arm926ejs/start.o
 .rel.text.do_get_any
                0x000000008173f078       0x10 arch/arm/cpu/arm926ejs/start.o
 .rel.text.do_get_fat
                0x000000008173f088       0x10 arch/arm/cpu/arm926ejs/start.o
 .rel.text.do_get_ext2
                0x000000008173f098       0x10 arch/arm/cpu/arm926ejs/start.o
 .rel.text.format_mac_pxe.constprop.6
                0x000000008173f0a8       0x10 arch/arm/cpu/arm926ejs/start.o
 .rel.text.get_relfile
                0x000000008173f0b8       0x38 arch/arm/cpu/arm926ejs/start.o
 .rel.text.get_pxe_file
                0x000000008173f0f0        0x8 arch/arm/cpu/arm926ejs/start.o
 .rel.text.handle_include
                0x000000008173f0f8       0x10 arch/arm/cpu/arm926ejs/start.o
 .rel.text.parse_pxefile_top
                0x000000008173f108       0x28 arch/arm/cpu/arm926ejs/start.o
 .rel.text.get_pxelinux_path
                0x000000008173f130       0x18 arch/arm/cpu/arm926ejs/start.o
 .rel.text.do_pxe_get
                0x000000008173f148       0x48 arch/arm/cpu/arm926ejs/start.o
 .rel.text.label_boot
                0x000000008173f190       0xf8 arch/arm/cpu/arm926ejs/start.o
 .rel.text.handle_pxe_menu
                0x000000008173f288       0x18 arch/arm/cpu/arm926ejs/start.o
 .rel.text.do_pxe_boot
                0x000000008173f2a0       0x38 arch/arm/cpu/arm926ejs/start.o
 .rel.text.do_sysboot
                0x000000008173f2d8       0x80 arch/arm/cpu/arm926ejs/start.o
 .rel.text.do_setexpr
                0x000000008173f358        0x8 arch/arm/cpu/arm926ejs/start.o
 .rel.text.do_test
                0x000000008173f360        0x8 arch/arm/cpu/arm926ejs/start.o
 .rel.text.usb_get_class_desc
                0x000000008173f368       0x50 arch/arm/cpu/arm926ejs/start.o
 .rel.text.usb_display_class_sub
                0x000000008173f3b8       0x98 arch/arm/cpu/arm926ejs/start.o
 .rel.text.usb_display_desc
                0x000000008173f450       0x38 arch/arm/cpu/arm926ejs/start.o
 .rel.text.usb_show_tree_graph
                0x000000008173f488       0x48 arch/arm/cpu/arm926ejs/start.o
 .rel.text.usb_display_string
                0x000000008173f4d0        0x8 arch/arm/cpu/arm926ejs/start.o
 .rel.text.usb_display_config
                0x000000008173f4d8       0xa8 arch/arm/cpu/arm926ejs/start.o
 .rel.text.do_usbboot
                0x000000008173f580        0x8 arch/arm/cpu/arm926ejs/start.o
 .rel.text.do_usb_start
                0x000000008173f588        0x8 arch/arm/cpu/arm926ejs/start.o
 .rel.text.usb_show_tree
                0x000000008173f590        0x8 arch/arm/cpu/arm926ejs/start.o
 .rel.text.do_usb
                0x000000008173f598       0xf0 arch/arm/cpu/arm926ejs/start.o
 .rel.text.common_diskboot
                0x000000008173f688       0x28 arch/arm/cpu/arm926ejs/start.o
 .rel.text.do_imgextract
                0x000000008173f6b0       0x90 arch/arm/cpu/arm926ejs/start.o
 .rel.text.extract_val
                0x000000008173f740       0x10 arch/arm/cpu/arm926ejs/start.o
 .rel.text.extract_env
                0x000000008173f750        0x8 arch/arm/cpu/arm926ejs/start.o
 .rel.text.set_gpt_info.isra.0.constprop.1
                0x000000008173f758       0x80 arch/arm/cpu/arm926ejs/start.o
 .rel.text.do_gpt
                0x000000008173f7d8       0x78 arch/arm/cpu/arm926ejs/start.o
 .rel.text.do_env_delete
                0x000000008173f850       0x10 arch/arm/cpu/arm926ejs/start.o
 .rel.text.do_env_exists
                0x000000008173f860        0x8 arch/arm/cpu/arm926ejs/start.o
 .rel.text.do_env_save
                0x000000008173f868        0x8 arch/arm/cpu/arm926ejs/start.o
 .rel.text.do_env
                0x000000008173f870        0x8 arch/arm/cpu/arm926ejs/start.o
 .rel.text.env_print
                0x000000008173f878       0x18 arch/arm/cpu/arm926ejs/start.o
 .rel.text.do_env_print
                0x000000008173f890       0x10 arch/arm/cpu/arm926ejs/start.o
 .rel.text.do_env_import
                0x000000008173f8a0       0x48 arch/arm/cpu/arm926ejs/start.o
 .rel.text.do_env_default
                0x000000008173f8e8        0x8 arch/arm/cpu/arm926ejs/start.o
 .rel.text._do_env_set.isra.0
                0x000000008173f8f0       0x30 arch/arm/cpu/arm926ejs/start.o
 .rel.text.get_env_id
                0x000000008173f920        0x8 arch/arm/cpu/arm926ejs/start.o
 .rel.text.env_set
                0x000000008173f928        0x8 arch/arm/cpu/arm926ejs/start.o
 .rel.text.env_set_hex
                0x000000008173f930        0x8 arch/arm/cpu/arm926ejs/start.o
 .rel.text.do_env_export
                0x000000008173f938       0x30 arch/arm/cpu/arm926ejs/start.o
 .rel.text.env_get_f
                0x000000008173f968        0x8 arch/arm/cpu/arm926ejs/start.o
 .rel.text.env_get
                0x000000008173f970        0x8 arch/arm/cpu/arm926ejs/start.o
 .rel.text.do_env_edit.part.3
                0x000000008173f978       0x18 arch/arm/cpu/arm926ejs/start.o
 .rel.rodata.op_table
                0x000000008173f990       0x68 arch/arm/cpu/arm926ejs/start.o
 .rel.rodata.desc_and_len_tbl
                0x000000008173f9f8       0x30 arch/arm/cpu/arm926ejs/start.o
 .rel.rodata.reg_0_5_desc_tbl
                0x000000008173fa28       0x30 arch/arm/cpu/arm926ejs/start.o
 .rel.rodata.reg_0_desc_tbl
                0x000000008173fa58       0x50 arch/arm/cpu/arm926ejs/start.o
 .rel.rodata.reg_1_desc_tbl
                0x000000008173faa8       0x80 arch/arm/cpu/arm926ejs/start.o
 .rel.rodata.reg_2_desc_tbl
                0x000000008173fb28        0x8 arch/arm/cpu/arm926ejs/start.o
 .rel.rodata.reg_3_desc_tbl
                0x000000008173fb30       0x18 arch/arm/cpu/arm926ejs/start.o
 .rel.rodata.reg_4_desc_tbl
                0x000000008173fb48       0x60 arch/arm/cpu/arm926ejs/start.o
 .rel.rodata.reg_5_desc_tbl
                0x000000008173fba8       0x60 arch/arm/cpu/arm926ejs/start.o
 .rel.rodata.keywords
                0x000000008173fc08       0x90 arch/arm/cpu/arm926ejs/start.o
 .rel.rodata.op_adv
                0x000000008173fc98       0x80 arch/arm/cpu/arm926ejs/start.o
 .rel.rodata.CSWTCH.45
                0x000000008173fd18       0x28 arch/arm/cpu/arm926ejs/start.o
 .rel.u_boot_list_2_cmd_2_go
                0x000000008173fd40       0x20 arch/arm/cpu/arm926ejs/start.o
 .rel.u_boot_list_2_cmd_2_reset
                0x000000008173fd60       0x20 arch/arm/cpu/arm926ejs/start.o
 .rel.data.cmd_bootm_sub
                0x000000008173fd80       0xd8 arch/arm/cpu/arm926ejs/start.o
 .rel.u_boot_list_2_cmd_2_boot
                0x000000008173fe58       0x20 arch/arm/cpu/arm926ejs/start.o
 .rel.u_boot_list_2_cmd_2_bootd
                0x000000008173fe78       0x20 arch/arm/cpu/arm926ejs/start.o
 .rel.u_boot_list_2_cmd_2_bootm
                0x000000008173fe98       0x20 arch/arm/cpu/arm926ejs/start.o
 .rel.u_boot_list_2_cmd_2_iminfo
                0x000000008173feb8       0x20 arch/arm/cpu/arm926ejs/start.o
 .rel.u_boot_list_2_cmd_2_help
                0x000000008173fed8       0x20 arch/arm/cpu/arm926ejs/start.o
 .rel.u_boot_list_2_cmd_2_question_mark
                0x000000008173fef8       0x20 arch/arm/cpu/arm926ejs/start.o
 .rel.u_boot_list_2_cmd_2_version
                0x000000008173ff18       0x20 arch/arm/cpu/arm926ejs/start.o
 .rel.u_boot_list_2_cmd_2_source
                0x000000008173ff38       0x20 arch/arm/cpu/arm926ejs/start.o
 .rel.u_boot_list_2_cmd_2_bdinfo
                0x000000008173ff58       0x20 arch/arm/cpu/arm926ejs/start.o
 .rel.u_boot_list_2_cmd_2_bootefi
                0x000000008173ff78       0x20 arch/arm/cpu/arm926ejs/start.o
 .rel.u_boot_list_2_cmd_2_bootz
                0x000000008173ff98       0x20 arch/arm/cpu/arm926ejs/start.o
 .rel.u_boot_list_2_cmd_2_coninfo
                0x000000008173ffb8       0x20 arch/arm/cpu/arm926ejs/start.o
 .rel.u_boot_list_2_cmd_2_echo
                0x000000008173ffd8       0x20 arch/arm/cpu/arm926ejs/start.o
 .rel.u_boot_list_2_cmd_2_bootelf
                0x000000008173fff8       0x20 arch/arm/cpu/arm926ejs/start.o
 .rel.u_boot_list_2_cmd_2_bootvx
                0x0000000081740018       0x20 arch/arm/cpu/arm926ejs/start.o
 .rel.u_boot_list_2_cmd_2_exit
                0x0000000081740038       0x20 arch/arm/cpu/arm926ejs/start.o
 .rel.u_boot_list_2_cmd_2_ext4load
                0x0000000081740058       0x20 arch/arm/cpu/arm926ejs/start.o
 .rel.u_boot_list_2_cmd_2_ext4ls
                0x0000000081740078       0x20 arch/arm/cpu/arm926ejs/start.o
 .rel.u_boot_list_2_cmd_2_ext4size
                0x0000000081740098       0x20 arch/arm/cpu/arm926ejs/start.o
 .rel.u_boot_list_2_cmd_2_ext2load
                0x00000000817400b8       0x20 arch/arm/cpu/arm926ejs/start.o
 .rel.u_boot_list_2_cmd_2_ext2ls
                0x00000000817400d8       0x20 arch/arm/cpu/arm926ejs/start.o
 .rel.u_boot_list_2_cmd_2_fatinfo
                0x00000000817400f8       0x20 arch/arm/cpu/arm926ejs/start.o
 .rel.u_boot_list_2_cmd_2_fatload
                0x0000000081740118       0x20 arch/arm/cpu/arm926ejs/start.o
 .rel.u_boot_list_2_cmd_2_fatls
                0x0000000081740138       0x20 arch/arm/cpu/arm926ejs/start.o
 .rel.u_boot_list_2_cmd_2_fatsize
                0x0000000081740158       0x20 arch/arm/cpu/arm926ejs/start.o
 .rel.u_boot_list_2_cmd_2_fatwrite
                0x0000000081740178       0x20 arch/arm/cpu/arm926ejs/start.o
 .rel.u_boot_list_2_cmd_2_fdt
                0x0000000081740198       0x20 arch/arm/cpu/arm926ejs/start.o
 .rel.u_boot_list_2_cmd_2_erase
                0x00000000817401b8       0x20 arch/arm/cpu/arm926ejs/start.o
 .rel.u_boot_list_2_cmd_2_flinfo
                0x00000000817401d8       0x20 arch/arm/cpu/arm926ejs/start.o
 .rel.u_boot_list_2_cmd_2_protect
                0x00000000817401f8       0x20 arch/arm/cpu/arm926ejs/start.o
 .rel.u_boot_list_2_cmd_2_fstype
                0x0000000081740218       0x20 arch/arm/cpu/arm926ejs/start.o
 .rel.u_boot_list_2_cmd_2_load
                0x0000000081740238       0x20 arch/arm/cpu/arm926ejs/start.o
 .rel.u_boot_list_2_cmd_2_ls
                0x0000000081740258       0x20 arch/arm/cpu/arm926ejs/start.o
 .rel.u_boot_list_2_cmd_2_save
                0x0000000081740278       0x20 arch/arm/cpu/arm926ejs/start.o
 .rel.u_boot_list_2_cmd_2_size
                0x0000000081740298       0x20 arch/arm/cpu/arm926ejs/start.o
 .rel.u_boot_list_2_cmd_2_gpio
                0x00000000817402b8       0x20 arch/arm/cpu/arm926ejs/start.o
 .rel.u_boot_list_2_cmd_2_itest
                0x00000000817402d8       0x20 arch/arm/cpu/arm926ejs/start.o
 .rel.u_boot_list_2_cmd_2_loadb
                0x00000000817402f8       0x20 arch/arm/cpu/arm926ejs/start.o
 .rel.u_boot_list_2_cmd_2_loads
                0x0000000081740318       0x20 arch/arm/cpu/arm926ejs/start.o
 .rel.u_boot_list_2_cmd_2_loadx
                0x0000000081740338       0x20 arch/arm/cpu/arm926ejs/start.o
 .rel.u_boot_list_2_cmd_2_loady
                0x0000000081740358       0x20 arch/arm/cpu/arm926ejs/start.o
 .rel.u_boot_list_2_cmd_2_base
                0x0000000081740378       0x20 arch/arm/cpu/arm926ejs/start.o
 .rel.u_boot_list_2_cmd_2_cmp
                0x0000000081740398       0x20 arch/arm/cpu/arm926ejs/start.o
 .rel.u_boot_list_2_cmd_2_cp
                0x00000000817403b8       0x20 arch/arm/cpu/arm926ejs/start.o
 .rel.u_boot_list_2_cmd_2_loop
                0x00000000817403d8       0x20 arch/arm/cpu/arm926ejs/start.o
 .rel.u_boot_list_2_cmd_2_md
                0x00000000817403f8       0x20 arch/arm/cpu/arm926ejs/start.o
 .rel.u_boot_list_2_cmd_2_mm
                0x0000000081740418       0x20 arch/arm/cpu/arm926ejs/start.o
 .rel.u_boot_list_2_cmd_2_mw
                0x0000000081740438       0x20 arch/arm/cpu/arm926ejs/start.o
 .rel.u_boot_list_2_cmd_2_nm
                0x0000000081740458       0x20 arch/arm/cpu/arm926ejs/start.o
 .rel.u_boot_list_2_cmd_2_mii
                0x0000000081740478       0x20 arch/arm/cpu/arm926ejs/start.o
 .rel.data.cmd_mmc
                0x0000000081740498      0x140 arch/arm/cpu/arm926ejs/start.o
 .rel.u_boot_list_2_cmd_2_mmc
                0x00000000817405d8       0x20 arch/arm/cpu/arm926ejs/start.o
 .rel.u_boot_list_2_cmd_2_mmcinfo
                0x00000000817405f8       0x20 arch/arm/cpu/arm926ejs/start.o
 .rel.u_boot_list_2_cmd_2_bootp
                0x0000000081740618       0x20 arch/arm/cpu/arm926ejs/start.o
 .rel.u_boot_list_2_cmd_2_dhcp
                0x0000000081740638       0x20 arch/arm/cpu/arm926ejs/start.o
 .rel.u_boot_list_2_cmd_2_nfs
                0x0000000081740658       0x20 arch/arm/cpu/arm926ejs/start.o
 .rel.u_boot_list_2_cmd_2_ping
                0x0000000081740678       0x20 arch/arm/cpu/arm926ejs/start.o
 .rel.u_boot_list_2_cmd_2_tftpboot
                0x0000000081740698       0x20 arch/arm/cpu/arm926ejs/start.o
 .rel.u_boot_list_2_cmd_2_part
                0x00000000817406b8       0x20 arch/arm/cpu/arm926ejs/start.o
 .rel.data.cmd_pxe_sub
                0x00000000817406d8       0x40 arch/arm/cpu/arm926ejs/start.o
 .rel.data.pxe_default_paths
                0x0000000081740718       0x18 arch/arm/cpu/arm926ejs/start.o
 .rel.u_boot_list_2_cmd_2_pxe
                0x0000000081740730       0x20 arch/arm/cpu/arm926ejs/start.o
 .rel.u_boot_list_2_cmd_2_sysboot
                0x0000000081740750       0x20 arch/arm/cpu/arm926ejs/start.o
 .rel.u_boot_list_2_cmd_2_setexpr
                0x0000000081740770       0x20 arch/arm/cpu/arm926ejs/start.o
 .rel.u_boot_list_2_cmd_2_false
                0x0000000081740790       0x18 arch/arm/cpu/arm926ejs/start.o
 .rel.u_boot_list_2_cmd_2_test
                0x00000000817407a8       0x20 arch/arm/cpu/arm926ejs/start.o
 .rel.u_boot_list_2_cmd_2_true
                0x00000000817407c8       0x18 arch/arm/cpu/arm926ejs/start.o
 .rel.u_boot_list_2_cmd_2_usb
                0x00000000817407e0       0x20 arch/arm/cpu/arm926ejs/start.o
 .rel.u_boot_list_2_cmd_2_usbboot
                0x0000000081740800       0x20 arch/arm/cpu/arm926ejs/start.o
 .rel.u_boot_list_2_cmd_2_imxtract
                0x0000000081740820       0x20 arch/arm/cpu/arm926ejs/start.o
 .rel.u_boot_list_2_cmd_2_gpt
                0x0000000081740840       0x20 arch/arm/cpu/arm926ejs/start.o
 .rel.data.cmd_env_sub
                0x0000000081740860      0x140 arch/arm/cpu/arm926ejs/start.o
 .rel.u_boot_list_2_cmd_2_editenv
                0x00000000817409a0       0x28 arch/arm/cpu/arm926ejs/start.o
 .rel.u_boot_list_2_cmd_2_env
                0x00000000817409c8       0x20 arch/arm/cpu/arm926ejs/start.o
 .rel.u_boot_list_2_cmd_2_printenv
                0x00000000817409e8       0x28 arch/arm/cpu/arm926ejs/start.o
 .rel.u_boot_list_2_cmd_2_run
                0x0000000081740a10       0x28 arch/arm/cpu/arm926ejs/start.o
 .rel.u_boot_list_2_cmd_2_saveenv
                0x0000000081740a38       0x20 arch/arm/cpu/arm926ejs/start.o
 .rel.u_boot_list_2_cmd_2_setenv
                0x0000000081740a58       0x28 arch/arm/cpu/arm926ejs/start.o
 .rel.text.main_loop
                0x0000000081740a80       0x10 arch/arm/cpu/arm926ejs/start.o
 .rel.text.jumptable_init
                0x0000000081740a90       0xc0 arch/arm/cpu/arm926ejs/start.o
 .rel.text.mapset
                0x0000000081740b50        0x8 arch/arm/cpu/arm926ejs/start.o
 .rel.text.syntax_err
                0x0000000081740b58        0x8 arch/arm/cpu/arm926ejs/start.o
 .rel.text.xmalloc
                0x0000000081740b60        0x8 arch/arm/cpu/arm926ejs/start.o
 .rel.text.xrealloc
                0x0000000081740b68        0x8 arch/arm/cpu/arm926ejs/start.o
 .rel.text.done_word
                0x0000000081740b70        0x8 arch/arm/cpu/arm926ejs/start.o
 .rel.text.is_assignment
                0x0000000081740b78        0x8 arch/arm/cpu/arm926ejs/start.o
 .rel.text.file_get
                0x0000000081740b80       0x30 arch/arm/cpu/arm926ejs/start.o
 .rel.text.do_showvar
                0x0000000081740bb0       0x20 arch/arm/cpu/arm926ejs/start.o
 .rel.text.b_addqchr
                0x0000000081740bd0        0x8 arch/arm/cpu/arm926ejs/start.o
 .rel.text.get_local_var
                0x0000000081740bd8       0x20 arch/arm/cpu/arm926ejs/start.o
 .rel.text.set_local_var
                0x0000000081740bf8       0x20 arch/arm/cpu/arm926ejs/start.o
 .rel.text.insert_var_value_sub
                0x0000000081740c18        0x8 arch/arm/cpu/arm926ejs/start.o
 .rel.text.unset_local_var
                0x0000000081740c20        0x0 arch/arm/cpu/arm926ejs/start.o
 .rel.text.parse_string_outer
                0x0000000081740c20       0x18 arch/arm/cpu/arm926ejs/start.o
 .rel.text.run_list_real
                0x0000000081740c38       0x50 arch/arm/cpu/arm926ejs/start.o
 .rel.text.parse_stream_outer
                0x0000000081740c88       0x70 arch/arm/cpu/arm926ejs/start.o
 .rel.text.parse_file_outer
                0x0000000081740cf8       0x10 arch/arm/cpu/arm926ejs/start.o
 .rel.text.u_boot_hush_start
                0x0000000081740d08       0x18 arch/arm/cpu/arm926ejs/start.o
 .rel.text.bootdelay_process
                0x0000000081740d20       0x38 arch/arm/cpu/arm926ejs/start.o
 .rel.text.autoboot_command
                0x0000000081740d58       0x20 arch/arm/cpu/arm926ejs/start.o
 .rel.text.setup_mon_len
                0x0000000081740d78       0x10 arch/arm/cpu/arm926ejs/start.o
 .rel.text.announce_dram_init
                0x0000000081740d88        0x8 arch/arm/cpu/arm926ejs/start.o
 .rel.text.init_baud_rate
                0x0000000081740d90        0x8 arch/arm/cpu/arm926ejs/start.o
 .rel.text.show_dram_config
                0x0000000081740d98        0x8 arch/arm/cpu/arm926ejs/start.o
 .rel.text.board_init_f
                0x0000000081740da0        0x8 arch/arm/cpu/arm926ejs/start.o
 .rel.text.initr_net
                0x0000000081740da8        0x8 arch/arm/cpu/arm926ejs/start.o
 .rel.text.initr_ethaddr
                0x0000000081740db0        0x8 arch/arm/cpu/arm926ejs/start.o
 .rel.text.initr_env
                0x0000000081740db8       0x20 arch/arm/cpu/arm926ejs/start.o
 .rel.text.initr_mmc
                0x0000000081740dd8        0x8 arch/arm/cpu/arm926ejs/start.o
 .rel.text.initr_reloc_global_data
                0x0000000081740de0       0x18 arch/arm/cpu/arm926ejs/start.o
 .rel.text.board_init_r
                0x0000000081740df8        0x8 arch/arm/cpu/arm926ejs/start.o
 .rel.text.show_board_info
                0x0000000081740e00       0x10 arch/arm/cpu/arm926ejs/start.o
 .rel.text.bootm_find_images
                0x0000000081740e10       0x38 arch/arm/cpu/arm926ejs/start.o
 .rel.text.bootm_decomp_image
                0x0000000081740e48       0x48 arch/arm/cpu/arm926ejs/start.o
 .rel.text.do_bootm_states
                0x0000000081740e90       0xd8 arch/arm/cpu/arm926ejs/start.o
 .rel.text.do_bootm_rtems
                0x0000000081740f68        0x8 arch/arm/cpu/arm926ejs/start.o
 .rel.text.do_bootm_plan9
                0x0000000081740f70       0x18 arch/arm/cpu/arm926ejs/start.o
 .rel.text.do_bootm_standalone
                0x0000000081740f88       0x18 arch/arm/cpu/arm926ejs/start.o
 .rel.text.do_bootm_qnxelf
                0x0000000081740fa0        0x8 arch/arm/cpu/arm926ejs/start.o
 .rel.text.do_bootm_netbsd
                0x0000000081740fa8       0x18 arch/arm/cpu/arm926ejs/start.o
 .rel.text.do_bootvx_fdt
                0x0000000081740fc0       0x38 arch/arm/cpu/arm926ejs/start.o
 .rel.text.bootm_os_get_boot_func
                0x0000000081740ff8        0x8 arch/arm/cpu/arm926ejs/start.o
 .rel.text.fdt_support_default_count_cells
                0x0000000081741000        0x8 arch/arm/cpu/arm926ejs/start.o
 .rel.text.fdt_find_or_add_subnode
                0x0000000081741008       0x10 arch/arm/cpu/arm926ejs/start.o
 .rel.text.fdt_root
                0x0000000081741018       0x20 arch/arm/cpu/arm926ejs/start.o
 .rel.text.fdt_initrd
                0x0000000081741038       0x30 arch/arm/cpu/arm926ejs/start.o
 .rel.text.fdt_chosen
                0x0000000081741068       0x30 arch/arm/cpu/arm926ejs/start.o
 .rel.text.do_fixup_by_path
                0x0000000081741098        0x8 arch/arm/cpu/arm926ejs/start.o
 .rel.text.fdt_record_loadable
                0x00000000817410a0        0x0 arch/arm/cpu/arm926ejs/start.o
 .rel.text.fdt_fixup_memory_banks
                0x00000000817410a0       0x38 arch/arm/cpu/arm926ejs/start.o
 .rel.text.fdt_fixup_ethernet
                0x00000000817410d8       0x30 arch/arm/cpu/arm926ejs/start.o
 .rel.text.fdt_del_node_and_alias
                0x0000000081741108        0x0 arch/arm/cpu/arm926ejs/start.o
 .rel.text.fdt_translate_address
                0x0000000081741108       0x20 arch/arm/cpu/arm926ejs/start.o
 .rel.text.fdt_node_offset_by_compat_reg
                0x0000000081741128        0x0 arch/arm/cpu/arm926ejs/start.o
 .rel.text.fdt_set_phandle
                0x0000000081741128        0x0 arch/arm/cpu/arm926ejs/start.o
 .rel.text.fdt_create_phandle
                0x0000000081741128        0x0 arch/arm/cpu/arm926ejs/start.o
 .rel.text.fdt_set_node_status
                0x0000000081741128        0x0 arch/arm/cpu/arm926ejs/start.o
 .rel.text.fdt_verify_alias_address
                0x0000000081741128        0x0 arch/arm/cpu/arm926ejs/start.o
 .rel.text.fdt_get_base_address
                0x0000000081741128        0x0 arch/arm/cpu/arm926ejs/start.o
 .rel.text.fdt_read_range
                0x0000000081741128        0x0 arch/arm/cpu/arm926ejs/start.o
 .rel.text.fdt_setup_simplefb_node
                0x0000000081741128        0x0 arch/arm/cpu/arm926ejs/start.o
 .rel.text.fdt_fixup_display
                0x0000000081741128        0x0 arch/arm/cpu/arm926ejs/start.o
 .rel.text.fdt_overlay_apply_verbose
                0x0000000081741128       0x20 arch/arm/cpu/arm926ejs/start.o
 .rel.text.miiphy_get_dev_by_name
                0x0000000081741148       0x10 arch/arm/cpu/arm926ejs/start.o
 .rel.text.miiphy_init
                0x0000000081741158       0x10 arch/arm/cpu/arm926ejs/start.o
 .rel.text.mdio_register
                0x0000000081741168        0x0 arch/arm/cpu/arm926ejs/start.o
 .rel.text.mdio_register_seq
                0x0000000081741168        0x0 arch/arm/cpu/arm926ejs/start.o
 .rel.text.mdio_unregister
                0x0000000081741168        0x0 arch/arm/cpu/arm926ejs/start.o
 .rel.text.mdio_list_devices
                0x0000000081741168        0x0 arch/arm/cpu/arm926ejs/start.o
 .rel.text.miiphy_set_current_dev
                0x0000000081741168       0x10 arch/arm/cpu/arm926ejs/start.o
 .rel.text.miiphy_get_active_dev
                0x0000000081741178        0x8 arch/arm/cpu/arm926ejs/start.o
 .rel.text.mdio_get_current_dev
                0x0000000081741180        0x0 arch/arm/cpu/arm926ejs/start.o
 .rel.text.mdio_phydev_for_ethname
                0x0000000081741180        0x0 arch/arm/cpu/arm926ejs/start.o
 .rel.text.miiphy_get_current_dev
                0x0000000081741180        0x8 arch/arm/cpu/arm926ejs/start.o
 .rel.text.miiphy_listdev
                0x0000000081741188       0x30 arch/arm/cpu/arm926ejs/start.o
 .rel.text.miiphy_reset
                0x00000000817411b8        0x0 arch/arm/cpu/arm926ejs/start.o
 .rel.text.miiphy_speed
                0x00000000817411b8       0x20 arch/arm/cpu/arm926ejs/start.o
 .rel.text.miiphy_duplex
                0x00000000817411d8       0x20 arch/arm/cpu/arm926ejs/start.o
 .rel.text.get_descriptor_len
                0x00000000817411f8       0x10 arch/arm/cpu/arm926ejs/start.o
 .rel.text.usb_setup_descriptor
                0x0000000081741208       0x10 arch/arm/cpu/arm926ejs/start.o
 .rel.text.usb_string_sub
                0x0000000081741218        0x8 arch/arm/cpu/arm926ejs/start.o
 .rel.text.usb_get_configuration_len
                0x0000000081741220       0x10 arch/arm/cpu/arm926ejs/start.o
 .rel.text.usb_set_interface
                0x0000000081741230        0x8 arch/arm/cpu/arm926ejs/start.o
 .rel.text.usb_select_config
                0x0000000081741238       0x70 arch/arm/cpu/arm926ejs/start.o
 .rel.text.usb_setup_device
                0x00000000817412a8       0x10 arch/arm/cpu/arm926ejs/start.o
 .rel.text.usb_find_usb2_hub_address_port
                0x00000000817412b8        0x0 arch/arm/cpu/arm926ejs/start.o
 .rel.text.usb_hub_port_connect_change
                0x00000000817412b8        0x8 arch/arm/cpu/arm926ejs/start.o
 .rel.text.usb_hub_configure
                0x00000000817412c0       0x30 arch/arm/cpu/arm926ejs/start.o
 .rel.text.usb_stor_BBB_transport
                0x00000000817412f0       0x10 arch/arm/cpu/arm926ejs/start.o
 .rel.text.usb_stor_CB_comdat
                0x0000000081741300        0x8 arch/arm/cpu/arm926ejs/start.o
 .rel.text.usb_stor_CBI_get_status.isra.2
                0x0000000081741308        0x8 arch/arm/cpu/arm926ejs/start.o
 .rel.text.usb_stor_CB_transport
                0x0000000081741310       0x10 arch/arm/cpu/arm926ejs/start.o
 .rel.text.usb_request_sense.constprop.11
                0x0000000081741320       0x10 arch/arm/cpu/arm926ejs/start.o
 .rel.text.usb_stor_read
                0x0000000081741330       0x10 arch/arm/cpu/arm926ejs/start.o
 .rel.text.usb_stor_write
                0x0000000081741340       0x10 arch/arm/cpu/arm926ejs/start.o
 .rel.text.usb_stor_info
                0x0000000081741350       0x20 arch/arm/cpu/arm926ejs/start.o
 .rel.text.usb_stor_reset
                0x0000000081741370        0x8 arch/arm/cpu/arm926ejs/start.o
 .rel.text.usb_stor_scan
                0x0000000081741378       0x18 arch/arm/cpu/arm926ejs/start.o
 .rel.text.usb_storage_probe
                0x0000000081741390       0x38 arch/arm/cpu/arm926ejs/start.o
 .rel.text.usb_stor_get_info
                0x00000000817413c8       0x20 arch/arm/cpu/arm926ejs/start.o
 .rel.text.usb_mass_storage_probe
                0x00000000817413e8       0x38 arch/arm/cpu/arm926ejs/start.o
 .rel.text.menu_get_choice
                0x0000000081741420       0x18 arch/arm/cpu/arm926ejs/start.o
 .rel.text.usb_kbd_remove
                0x0000000081741438       0x18 arch/arm/cpu/arm926ejs/start.o
 .rel.text.usb_kbd_translate.part.0
                0x0000000081741450       0x20 arch/arm/cpu/arm926ejs/start.o
 .rel.text.usb_kbd_probe
                0x0000000081741470       0x38 arch/arm/cpu/arm926ejs/start.o
 .rel.text.usb_kbd_getc
                0x00000000817414a8        0x8 arch/arm/cpu/arm926ejs/start.o
 .rel.text.usb_kbd_testc
                0x00000000817414b0       0x18 arch/arm/cpu/arm926ejs/start.o
 .rel.text.delete_char.part.0
                0x00000000817414c8       0x10 arch/arm/cpu/arm926ejs/start.o
 .rel.text.cread_add_char
                0x00000000817414d8        0x8 arch/arm/cpu/arm926ejs/start.o
 .rel.text.cli_readline_into_buffer
                0x00000000817414e0       0xa8 arch/arm/cpu/arm926ejs/start.o
 .rel.text.cli_readline
                0x0000000081741588        0x8 arch/arm/cpu/arm926ejs/start.o
 .rel.text.cli_simple_parse_line
                0x0000000081741590        0x0 arch/arm/cpu/arm926ejs/start.o
 .rel.text.cli_simple_run_command
                0x0000000081741590        0x0 arch/arm/cpu/arm926ejs/start.o
 .rel.text.cli_simple_loop
                0x0000000081741590        0x0 arch/arm/cpu/arm926ejs/start.o
 .rel.text.console_setfile
                0x0000000081741590       0x30 arch/arm/cpu/arm926ejs/start.o
 .rel.text.fgetc
                0x00000000817415c0        0x8 arch/arm/cpu/arm926ejs/start.o
 .rel.text.ftstc
                0x00000000817415c8        0x8 arch/arm/cpu/arm926ejs/start.o
 .rel.text.fputc
                0x00000000817415d0        0x8 arch/arm/cpu/arm926ejs/start.o
 .rel.text.fputs
                0x00000000817415d8        0x8 arch/arm/cpu/arm926ejs/start.o
 .rel.text.print_pre_console_buffer
                0x00000000817415e0       0x10 arch/arm/cpu/arm926ejs/start.o
 .rel.text.ctrlc
                0x00000000817415f0       0x10 arch/arm/cpu/arm926ejs/start.o
 .rel.text.confirm_yesno
                0x0000000081741600        0x0 arch/arm/cpu/arm926ejs/start.o
 .rel.text.disable_ctrlc
                0x0000000081741600        0x8 arch/arm/cpu/arm926ejs/start.o
 .rel.text.had_ctrlc
                0x0000000081741608        0x8 arch/arm/cpu/arm926ejs/start.o
 .rel.text.clear_ctrlc
                0x0000000081741610        0x8 arch/arm/cpu/arm926ejs/start.o
 .rel.text.on_console
                0x0000000081741618       0x20 arch/arm/cpu/arm926ejs/start.o
 .rel.text.stdio_print_current_devices
                0x0000000081741638       0x40 arch/arm/cpu/arm926ejs/start.o
 .rel.text.console_init_r
                0x0000000081741678       0x10 arch/arm/cpu/arm926ejs/start.o
 .rel.text.sbrk
                0x0000000081741688       0x18 arch/arm/cpu/arm926ejs/start.o
 .rel.text.mem_malloc_init
                0x00000000817416a0       0x18 arch/arm/cpu/arm926ejs/start.o
 .rel.text.malloc_trim
                0x00000000817416b8       0x18 arch/arm/cpu/arm926ejs/start.o
 .rel.text.free
                0x00000000817416d0       0x20 arch/arm/cpu/arm926ejs/start.o
 .rel.text.malloc
                0x00000000817416f0       0x58 arch/arm/cpu/arm926ejs/start.o
 .rel.text.calloc
                0x0000000081741748        0x8 arch/arm/cpu/arm926ejs/start.o
 .rel.text.realloc
                0x0000000081741750       0x10 arch/arm/cpu/arm926ejs/start.o
 .rel.text.mallopt
                0x0000000081741760        0x0 arch/arm/cpu/arm926ejs/start.o
 .rel.text.on_loadaddr
                0x0000000081741760        0x8 arch/arm/cpu/arm926ejs/start.o
 .rel.text.env_get_bootm_low
                0x0000000081741768        0x8 arch/arm/cpu/arm926ejs/start.o
 .rel.text.env_get_bootm_size
                0x0000000081741770       0x10 arch/arm/cpu/arm926ejs/start.o
 .rel.text.env_get_bootm_mapsize
                0x0000000081741780        0x8 arch/arm/cpu/arm926ejs/start.o
 .rel.text.genimg_print_size
                0x0000000081741788       0x10 arch/arm/cpu/arm926ejs/start.o
 .rel.text.genimg_get_short_name
                0x0000000081741798        0x0 arch/arm/cpu/arm926ejs/start.o
 .rel.text.genimg_get_cat_name
                0x0000000081741798        0x0 arch/arm/cpu/arm926ejs/start.o
 .rel.text.genimg_get_cat_short_name
                0x0000000081741798        0x0 arch/arm/cpu/arm926ejs/start.o
 .rel.text.genimg_get_cat_count
                0x0000000081741798        0x0 arch/arm/cpu/arm926ejs/start.o
 .rel.text.genimg_get_cat_desc
                0x0000000081741798        0x0 arch/arm/cpu/arm926ejs/start.o
 .rel.text.genimg_get_os_name
                0x0000000081741798       0x10 arch/arm/cpu/arm926ejs/start.o
 .rel.text.genimg_get_arch_name
                0x00000000817417a8       0x10 arch/arm/cpu/arm926ejs/start.o
 .rel.text.genimg_get_type_name
                0x00000000817417b8       0x10 arch/arm/cpu/arm926ejs/start.o
 .rel.text.genimg_get_type_short_name
                0x00000000817417c8        0x0 arch/arm/cpu/arm926ejs/start.o
 .rel.text.genimg_get_comp_name
                0x00000000817417c8       0x10 arch/arm/cpu/arm926ejs/start.o
 .rel.text.image_print_contents
                0x00000000817417d8       0x58 arch/arm/cpu/arm926ejs/start.o
 .rel.text.genimg_get_comp_short_name
                0x0000000081741830        0x0 arch/arm/cpu/arm926ejs/start.o
 .rel.text.genimg_get_os_short_name
                0x0000000081741830        0x0 arch/arm/cpu/arm926ejs/start.o
 .rel.text.genimg_get_arch_short_name
                0x0000000081741830        0x0 arch/arm/cpu/arm926ejs/start.o
 .rel.text.genimg_get_os_id
                0x0000000081741830        0x0 arch/arm/cpu/arm926ejs/start.o
 .rel.text.genimg_get_arch_id
                0x0000000081741830        0x0 arch/arm/cpu/arm926ejs/start.o
 .rel.text.genimg_get_type_id
                0x0000000081741830        0x0 arch/arm/cpu/arm926ejs/start.o
 .rel.text.genimg_get_comp_id
                0x0000000081741830        0x0 arch/arm/cpu/arm926ejs/start.o
 .rel.text.genimg_get_kernel_addr_fit
                0x0000000081741830        0x8 arch/arm/cpu/arm926ejs/start.o
 .rel.text.boot_get_ramdisk
                0x0000000081741838       0x50 arch/arm/cpu/arm926ejs/start.o
 .rel.text.boot_ramdisk_high
                0x0000000081741888       0x20 arch/arm/cpu/arm926ejs/start.o
 .rel.text.fdt_error
                0x00000000817418a8       0x10 arch/arm/cpu/arm926ejs/start.o
 .rel.text.boot_fdt_add_mem_rsv_regions
                0x00000000817418b8        0x8 arch/arm/cpu/arm926ejs/start.o
 .rel.text.boot_relocate_fdt
                0x00000000817418c0       0x40 arch/arm/cpu/arm926ejs/start.o
 .rel.text.boot_get_fdt
                0x0000000081741900       0x80 arch/arm/cpu/arm926ejs/start.o
 .rel.text.image_setup_libfdt
                0x0000000081741980       0x28 arch/arm/cpu/arm926ejs/start.o
 .rel.text.stdio_get_list
                0x00000000817419a8        0x8 arch/arm/cpu/arm926ejs/start.o
 .rel.text.stdio_get_by_name
                0x00000000817419b0        0x8 arch/arm/cpu/arm926ejs/start.o
 .rel.text.stdio_register_dev
                0x00000000817419b8        0x8 arch/arm/cpu/arm926ejs/start.o
 .rel.text.stdio_deregister_dev
                0x00000000817419c0       0x18 arch/arm/cpu/arm926ejs/start.o
 .rel.text.stdio_init_tables
                0x00000000817419d8        0x8 arch/arm/cpu/arm926ejs/start.o
 .rel.text.stdio_add_devices
                0x00000000817419e0       0x50 arch/arm/cpu/arm926ejs/start.o
 .rel.text.do_run
                0x0000000081741a30        0x8 arch/arm/cpu/arm926ejs/start.o
 .rel.text.cli_process_fdt
                0x0000000081741a38       0x10 arch/arm/cpu/arm926ejs/start.o
 .rel.text.cli_secure_boot_cmd
                0x0000000081741a48       0x18 arch/arm/cpu/arm926ejs/start.o
 .rel.text.find_cmd
                0x0000000081741a60       0x10 arch/arm/cpu/arm926ejs/start.o
 .rel.text.cmd_usage
                0x0000000081741a70       0x18 arch/arm/cpu/arm926ejs/start.o
 .rel.text._do_help
                0x0000000081741a88       0x10 arch/arm/cpu/arm926ejs/start.o
 .rel.text.var_complete
                0x0000000081741a98       0x10 arch/arm/cpu/arm926ejs/start.o
 .rel.text.cmd_auto_complete
                0x0000000081741aa8       0x40 arch/arm/cpu/arm926ejs/start.o
 .rel.text.cmd_get_data_size
                0x0000000081741ae8        0x8 arch/arm/cpu/arm926ejs/start.o
 .rel.text.cmd_process
                0x0000000081741af0       0x18 arch/arm/cpu/arm926ejs/start.o
 .rel.text.cmd_process_error
                0x0000000081741b08        0x8 arch/arm/cpu/arm926ejs/start.o
 .rel.text.xyzModem_get_hdr
                0x0000000081741b10       0x30 arch/arm/cpu/arm926ejs/start.o
 .rel.text.xyzModem_stream_open
                0x0000000081741b40       0x10 arch/arm/cpu/arm926ejs/start.o
 .rel.text.xyzModem_stream_read
                0x0000000081741b50        0x8 arch/arm/cpu/arm926ejs/start.o
 .rel.text.xyzModem_stream_close
                0x0000000081741b58       0x20 arch/arm/cpu/arm926ejs/start.o
 .rel.text.xyzModem_stream_terminate
                0x0000000081741b78        0x8 arch/arm/cpu/arm926ejs/start.o
 .rel.text.xyzModem_error
                0x0000000081741b80       0x10 arch/arm/cpu/arm926ejs/start.o
 .rel.rodata.init_sequence_f
                0x0000000081741b90      0x148 arch/arm/cpu/arm926ejs/start.o
 .rel.rodata.boot_os
                0x0000000081741cd8       0x38 arch/arm/cpu/arm926ejs/start.o
 .rel.rodata.usb_hub_ids
                0x0000000081741d10        0x8 arch/arm/cpu/arm926ejs/start.o
 .rel.rodata.usb_mass_storage_ids
                0x0000000081741d18        0x8 arch/arm/cpu/arm926ejs/start.o
 .rel.rodata.usb_kbd_ids
                0x0000000081741d20        0x8 arch/arm/cpu/arm926ejs/start.o
 .rel.rodata.table_info
                0x0000000081741d28        0x0 arch/arm/cpu/arm926ejs/start.o
 .rel.rodata.uimage_arch
                0x0000000081741d28      0x1a0 arch/arm/cpu/arm926ejs/start.o
 .rel.rodata.uimage_comp
                0x0000000081741ec8       0x70 arch/arm/cpu/arm926ejs/start.o
 .rel.rodata.uimage_os
                0x0000000081741f38       0xb0 arch/arm/cpu/arm926ejs/start.o
 .rel.rodata.uimage_type
                0x0000000081741fe8      0x210 arch/arm/cpu/arm926ejs/start.o
 .rel.rodata.CSWTCH.32
                0x00000000817421f8       0x40 arch/arm/cpu/arm926ejs/start.o
 .rel.data.reserved_list
                0x0000000081742238       0x58 arch/arm/cpu/arm926ejs/start.o
 .rel.u_boot_list_2_cmd_2_showvar
                0x0000000081742290       0x20 arch/arm/cpu/arm926ejs/start.o
 .rel.data.init_sequence_r
                0x00000000817422b0       0xe8 arch/arm/cpu/arm926ejs/start.o
 .rel.data.of_busses
                0x0000000081742398       0x28 arch/arm/cpu/arm926ejs/start.o
 .rel.data.usb_scan_list
                0x00000000817423c0       0x10 arch/arm/cpu/arm926ejs/start.o
 .rel.u_boot_list_2_driver_2_usb_generic_hub
                0x00000000817423d0       0x10 arch/arm/cpu/arm926ejs/start.o
 .rel.u_boot_list_2_uclass_2_usb_hub
                0x00000000817423e0       0x20 arch/arm/cpu/arm926ejs/start.o
 .rel.u_boot_list_2_usb_driver_entry_2_usb_generic_hub
                0x0000000081742400       0x10 arch/arm/cpu/arm926ejs/start.o
 .rel.u_boot_list_2_blk_driver_2_usb
                0x0000000081742410       0x10 arch/arm/cpu/arm926ejs/start.o
 .rel.u_boot_list_2_driver_2_usb_mass_storage
                0x0000000081742420       0x18 arch/arm/cpu/arm926ejs/start.o
 .rel.u_boot_list_2_uclass_2_usb_mass_storage
                0x0000000081742438        0x8 arch/arm/cpu/arm926ejs/start.o
 .rel.u_boot_list_2_usb_driver_entry_2_usb_mass_storage
                0x0000000081742440       0x10 arch/arm/cpu/arm926ejs/start.o
 .rel.u_boot_list_2_driver_2_usb_kbd
                0x0000000081742450       0x20 arch/arm/cpu/arm926ejs/start.o
 .rel.u_boot_list_2_usb_driver_entry_2_usb_kbd
                0x0000000081742470       0x10 arch/arm/cpu/arm926ejs/start.o
 .rel.u_boot_list_2_env_clbk_2_console
                0x0000000081742480       0x10 arch/arm/cpu/arm926ejs/start.o
 .rel.data.av_  0x0000000081742490      0x800 arch/arm/cpu/arm926ejs/start.o
 .rel.u_boot_list_2_env_clbk_2_loadaddr
                0x0000000081742c90       0x10 arch/arm/cpu/arm926ejs/start.o
 .rel.data.stdio_names
                0x0000000081742ca0       0x18 arch/arm/cpu/arm926ejs/start.o
 .rel.text.dev_print
                0x0000000081742cb8       0x88 arch/arm/cpu/arm926ejs/start.o
 .rel.text.part_init
                0x0000000081742d40       0x10 arch/arm/cpu/arm926ejs/start.o
 .rel.text.part_print
                0x0000000081742d50       0x78 arch/arm/cpu/arm926ejs/start.o
 .rel.text.part_get_info
                0x0000000081742dc8       0x10 arch/arm/cpu/arm926ejs/start.o
 .rel.text.part_get_info_whole_disk
                0x0000000081742dd8       0x10 arch/arm/cpu/arm926ejs/start.o
 .rel.text.blk_get_device_by_str
                0x0000000081742de8       0x18 arch/arm/cpu/arm926ejs/start.o
 .rel.text.blk_get_device_part_str
                0x0000000081742e00       0x58 arch/arm/cpu/arm926ejs/start.o
 .rel.text.part_get_info_by_name_type
                0x0000000081742e58        0x0 arch/arm/cpu/arm926ejs/start.o
 .rel.text.part_set_generic_name
                0x0000000081742e58       0x18 arch/arm/cpu/arm926ejs/start.o
 .rel.text.test_block_type
                0x0000000081742e70       0x10 arch/arm/cpu/arm926ejs/start.o
 .rel.text.print_partition_extended
                0x0000000081742e80       0x30 arch/arm/cpu/arm926ejs/start.o
 .rel.text.part_print_dos
                0x0000000081742eb0        0x8 arch/arm/cpu/arm926ejs/start.o
 .rel.text.part_get_info_extended
                0x0000000081742eb8       0x20 arch/arm/cpu/arm926ejs/start.o
 .rel.text.write_mbr_partition
                0x0000000081742ed8        0x0 arch/arm/cpu/arm926ejs/start.o
 .rel.text.part_get_info_iso_verb
                0x0000000081742ed8       0x80 arch/arm/cpu/arm926ejs/start.o
 .rel.text.part_print_iso
                0x0000000081742f58       0x18 arch/arm/cpu/arm926ejs/start.o
 .rel.text.print_efiname
                0x0000000081742f70       0x10 arch/arm/cpu/arm926ejs/start.o
 .rel.text.validate_gpt_entries
                0x0000000081742f80       0x10 arch/arm/cpu/arm926ejs/start.o
 .rel.text.validate_gpt_header
                0x0000000081742f90       0x30 arch/arm/cpu/arm926ejs/start.o
 .rel.text.is_gpt_valid
                0x0000000081742fc0       0x40 arch/arm/cpu/arm926ejs/start.o
 .rel.text.is_pte_valid
                0x0000000081743000       0x10 arch/arm/cpu/arm926ejs/start.o
 .rel.text.part_print_efi
                0x0000000081743010       0x60 arch/arm/cpu/arm926ejs/start.o
 .rel.text.part_get_info_efi
                0x0000000081743070       0x40 arch/arm/cpu/arm926ejs/start.o
 .rel.text.get_disk_guid
                0x00000000817430b0       0x20 arch/arm/cpu/arm926ejs/start.o
 .rel.text.write_gpt_table
                0x00000000817430d0       0x20 arch/arm/cpu/arm926ejs/start.o
 .rel.text.gpt_fill_pte
                0x00000000817430f0       0x20 arch/arm/cpu/arm926ejs/start.o
 .rel.text.gpt_fill_header
                0x0000000081743110        0x8 arch/arm/cpu/arm926ejs/start.o
 .rel.text.gpt_restore
                0x0000000081743118       0x10 arch/arm/cpu/arm926ejs/start.o
 .rel.text.gpt_verify_headers
                0x0000000081743128       0x18 arch/arm/cpu/arm926ejs/start.o
 .rel.text.gpt_verify_partitions
                0x0000000081743140       0x20 arch/arm/cpu/arm926ejs/start.o
 .rel.text.write_mbr_and_gpt_partitions
                0x0000000081743160        0x0 arch/arm/cpu/arm926ejs/start.o
 .rel.rodata.CSWTCH.40
                0x0000000081743160       0x40 arch/arm/cpu/arm926ejs/start.o
 .rel.u_boot_list_2_part_driver_2_dos
                0x00000000817431a0       0x20 arch/arm/cpu/arm926ejs/start.o
 .rel.u_boot_list_2_part_driver_2_iso
                0x00000000817431c0       0x20 arch/arm/cpu/arm926ejs/start.o
 .rel.u_boot_list_2_part_driver_2_a_efi
                0x00000000817431e0       0x20 arch/arm/cpu/arm926ejs/start.o
 .rel.text.device_bind_common.isra.0
                0x0000000081743200       0x10 arch/arm/cpu/arm926ejs/start.o
 .rel.text.device_probe
                0x0000000081743210       0x10 arch/arm/cpu/arm926ejs/start.o
 .rel.text.dev_get_platdata
                0x0000000081743220       0x10 arch/arm/cpu/arm926ejs/start.o
 .rel.text.dev_get_parent_platdata
                0x0000000081743230       0x10 arch/arm/cpu/arm926ejs/start.o
 .rel.text.dev_get_uclass_platdata
                0x0000000081743240       0x10 arch/arm/cpu/arm926ejs/start.o
 .rel.text.dev_get_priv
                0x0000000081743250       0x10 arch/arm/cpu/arm926ejs/start.o
 .rel.text.dev_get_uclass_priv
                0x0000000081743260       0x10 arch/arm/cpu/arm926ejs/start.o
 .rel.text.dev_get_parent_priv
                0x0000000081743270       0x10 arch/arm/cpu/arm926ejs/start.o
 .rel.text.devfdt_get_addr_index
                0x0000000081743280        0x8 arch/arm/cpu/arm926ejs/start.o
 .rel.text.devfdt_get_addr_size_index
                0x0000000081743288        0x0 arch/arm/cpu/arm926ejs/start.o
 .rel.text.devfdt_get_addr_name
                0x0000000081743288        0x0 arch/arm/cpu/arm926ejs/start.o
 .rel.text.lists_driver_lookup_name
                0x0000000081743288       0x10 arch/arm/cpu/arm926ejs/start.o
 .rel.text.lists_uclass_lookup
                0x0000000081743298       0x10 arch/arm/cpu/arm926ejs/start.o
 .rel.text.lists_bind_drivers
                0x00000000817432a8       0x18 arch/arm/cpu/arm926ejs/start.o
 .rel.text.lists_bind_fdt
                0x00000000817432c0       0x28 arch/arm/cpu/arm926ejs/start.o
 .rel.text.dm_scan_fdt_node
                0x00000000817432e8        0x8 arch/arm/cpu/arm926ejs/start.o
 .rel.text.dm_root
                0x00000000817432f0        0x8 arch/arm/cpu/arm926ejs/start.o
 .rel.text.dm_init
                0x00000000817432f8       0x10 arch/arm/cpu/arm926ejs/start.o
 .rel.text.dm_scan_platdata
                0x0000000081743308        0x8 arch/arm/cpu/arm926ejs/start.o
 .rel.text.dm_extended_scan_fdt
                0x0000000081743310        0x8 arch/arm/cpu/arm926ejs/start.o
 .rel.text.uclass_resolve_seq
                0x0000000081743318        0x8 arch/arm/cpu/arm926ejs/start.o
 .rel.text.dm_fdt_pre_reloc
                0x0000000081743320       0x18 arch/arm/cpu/arm926ejs/start.o
 .rel.text.device_remove
                0x0000000081743338       0x20 arch/arm/cpu/arm926ejs/start.o
 .rel.text.simple_bus_post_bind
                0x0000000081743358        0x8 arch/arm/cpu/arm926ejs/start.o
 .rel.text.show_devices
                0x0000000081743360       0x30 arch/arm/cpu/arm926ejs/start.o
 .rel.text.dm_dump_all
                0x0000000081743390       0x10 arch/arm/cpu/arm926ejs/start.o
 .rel.text.dm_dump_uclass
                0x00000000817433a0       0x20 arch/arm/cpu/arm926ejs/start.o
 .rel.text.of_read_fmap_entry
                0x00000000817433c0        0x0 arch/arm/cpu/arm926ejs/start.o
 .rel.text.ofnode_get_chosen_prop
                0x00000000817433c0        0x0 arch/arm/cpu/arm926ejs/start.o
 .rel.text.ofnode_decode_display_timing
                0x00000000817433c0        0x0 arch/arm/cpu/arm926ejs/start.o
 .rel.text.ofnode_pre_reloc
                0x00000000817433c0        0x0 arch/arm/cpu/arm926ejs/start.o
 .rel.text.ofnode_read_resource
                0x00000000817433c0        0x0 arch/arm/cpu/arm926ejs/start.o
 .rel.text.ofnode_read_resource_byname
                0x00000000817433c0        0x0 arch/arm/cpu/arm926ejs/start.o
 .rel.text.blk_driver_lookup_type
                0x00000000817433c0       0x10 arch/arm/cpu/arm926ejs/start.o
 .rel.text.blk_list_devices
                0x00000000817433d0        0x8 arch/arm/cpu/arm926ejs/start.o
 .rel.text.blk_print_device_num
                0x00000000817433d8        0x8 arch/arm/cpu/arm926ejs/start.o
 .rel.text.blk_show_device
                0x00000000817433e0       0x10 arch/arm/cpu/arm926ejs/start.o
 .rel.text.blk_get_devnum_by_typename
                0x00000000817433f0       0x10 arch/arm/cpu/arm926ejs/start.o
 .rel.text.mmc_send_status
                0x0000000081743400       0x10 arch/arm/cpu/arm926ejs/start.o
 .rel.text.mmc_bread
                0x0000000081743410       0x10 arch/arm/cpu/arm926ejs/start.o
 .rel.text.mmc_hwpart_config
                0x0000000081743420       0x48 arch/arm/cpu/arm926ejs/start.o
 .rel.text.mmc_startup
                0x0000000081743468       0x50 arch/arm/cpu/arm926ejs/start.o
 .rel.text.mmc_start_init
                0x00000000817434b8       0x10 arch/arm/cpu/arm926ejs/start.o
 .rel.text.mmc_init
                0x00000000817434c8       0x10 arch/arm/cpu/arm926ejs/start.o
 .rel.text.mmc_initialize
                0x00000000817434d8        0x8 arch/arm/cpu/arm926ejs/start.o
 .rel.text.find_mmc_device
                0x00000000817434e0       0x10 arch/arm/cpu/arm926ejs/start.o
 .rel.text.mmc_get_next_devnum
                0x00000000817434f0        0x8 arch/arm/cpu/arm926ejs/start.o
 .rel.text.get_mmc_num
                0x00000000817434f8        0x8 arch/arm/cpu/arm926ejs/start.o
 .rel.text.mmc_do_preinit
                0x0000000081743500        0x8 arch/arm/cpu/arm926ejs/start.o
 .rel.text.mmc_list_init
                0x0000000081743508       0x10 arch/arm/cpu/arm926ejs/start.o
 .rel.text.mmc_list_add
                0x0000000081743518        0x8 arch/arm/cpu/arm926ejs/start.o
 .rel.text.print_mmc_devices
                0x0000000081743520       0x40 arch/arm/cpu/arm926ejs/start.o
 .rel.text.mmc_create
                0x0000000081743560       0x18 arch/arm/cpu/arm926ejs/start.o
 .rel.text.mmc_berase
                0x0000000081743578       0x10 arch/arm/cpu/arm926ejs/start.o
 .rel.text.mmc_bwrite
                0x0000000081743588       0x18 arch/arm/cpu/arm926ejs/start.o
 .rel.text.sunxi_mmc_getcd_gpio
                0x00000000817435a0        0x8 arch/arm/cpu/arm926ejs/start.o
 .rel.text.mmc_set_mod_clk
                0x00000000817435a8        0x8 arch/arm/cpu/arm926ejs/start.o
 .rel.text.sunxi_mmc_init
                0x00000000817435b0       0x28 arch/arm/cpu/arm926ejs/start.o
 .rel.text.keyboard_pre_probe
                0x00000000817435d8       0x20 arch/arm/cpu/arm926ejs/start.o
 .rel.text._input_send_keycodes
                0x00000000817435f8        0x0 arch/arm/cpu/arm926ejs/start.o
 .rel.text.input_add_tables
                0x00000000817435f8        0x0 arch/arm/cpu/arm926ejs/start.o
 .rel.text.input_stdio_register
                0x00000000817435f8        0x0 arch/arm/cpu/arm926ejs/start.o
 .rel.text.key_matrix_decode_fdt
                0x00000000817435f8        0x0 arch/arm/cpu/arm926ejs/start.o
 .rel.rodata.root_info
                0x00000000817435f8        0x8 arch/arm/cpu/arm926ejs/start.o
 .rel.rodata.generic_simple_bus_ids
                0x0000000081743600       0x10 arch/arm/cpu/arm926ejs/start.o
 .rel.rodata.sunxi_mmc_ops
                0x0000000081743610       0x20 arch/arm/cpu/arm926ejs/start.o
 .rel.rodata.kbd_to_ansi364
                0x0000000081743630        0x0 arch/arm/cpu/arm926ejs/start.o
 .rel.u_boot_list_2_driver_2_root_driver
                0x0000000081743630        0x8 arch/arm/cpu/arm926ejs/start.o
 .rel.u_boot_list_2_uclass_2_root
                0x0000000081743638        0x8 arch/arm/cpu/arm926ejs/start.o
 .rel.u_boot_list_2_driver_2_simple_bus_drv
                0x0000000081743640       0x10 arch/arm/cpu/arm926ejs/start.o
 .rel.u_boot_list_2_uclass_2_simple_bus
                0x0000000081743650       0x10 arch/arm/cpu/arm926ejs/start.o
 .rel.u_boot_list_2_blk_driver_2_mmc
                0x0000000081743660       0x18 arch/arm/cpu/arm926ejs/start.o
 .rel.u_boot_list_2_uclass_2_keyboard
                0x0000000081743678       0x10 arch/arm/cpu/arm926ejs/start.o
 .rel.data.kbd_entry
                0x0000000081743688        0x0 arch/arm/cpu/arm926ejs/start.o
 .rel.text.check_reserved
                0x0000000081743688       0x10 arch/arm/cpu/arm926ejs/start.o
 .rel.text.dm_gpio_lookup_name
                0x0000000081743698        0x8 arch/arm/cpu/arm926ejs/start.o
 .rel.text.gpio_direction_input
                0x00000000817436a0        0x8 arch/arm/cpu/arm926ejs/start.o
 .rel.text.gpio_direction_output
                0x00000000817436a8        0x8 arch/arm/cpu/arm926ejs/start.o
 .rel.text.dm_gpio_get_value
                0x00000000817436b0        0x8 arch/arm/cpu/arm926ejs/start.o
 .rel.text.dm_gpio_set_value
                0x00000000817436b8        0x8 arch/arm/cpu/arm926ejs/start.o
 .rel.text.dm_gpio_get_open_drain
                0x00000000817436c0        0x0 arch/arm/cpu/arm926ejs/start.o
 .rel.text.dm_gpio_set_open_drain
                0x00000000817436c0        0x0 arch/arm/cpu/arm926ejs/start.o
 .rel.text.dm_gpio_set_dir_flags
                0x00000000817436c0        0x8 arch/arm/cpu/arm926ejs/start.o
 .rel.text.gpio_request_tail
                0x00000000817436c8       0x10 arch/arm/cpu/arm926ejs/start.o
 .rel.text.gpio_get_status
                0x00000000817436d8       0x28 arch/arm/cpu/arm926ejs/start.o
 .rel.text.gpio_request_by_name_nodev
                0x0000000081743700        0x0 arch/arm/cpu/arm926ejs/start.o
 .rel.text.gpio_request_by_name
                0x0000000081743700        0x8 arch/arm/cpu/arm926ejs/start.o
 .rel.text.gpio_get_list_count
                0x0000000081743708        0x8 arch/arm/cpu/arm926ejs/start.o
 .rel.text.gpio_request_list_by_name_nodev
                0x0000000081743710        0x0 arch/arm/cpu/arm926ejs/start.o
 .rel.rodata.gpio_function
                0x0000000081743710       0x28 arch/arm/cpu/arm926ejs/start.o
 .rel.rodata.gpio_sunxi_ops
                0x0000000081743738       0x30 arch/arm/cpu/arm926ejs/start.o
 .rel.rodata.sunxi_gpio_ids
                0x0000000081743768      0x110 arch/arm/cpu/arm926ejs/start.o
 .rel.u_boot_list_2_uclass_2_gpio
                0x0000000081743878       0x18 arch/arm/cpu/arm926ejs/start.o
 .rel.u_boot_list_2_driver_2_gpio_sunxi
                0x0000000081743890       0x28 arch/arm/cpu/arm926ejs/start.o
 .rel.text.serial_post_probe
                0x00000000817438b8       0x20 arch/arm/cpu/arm926ejs/start.o
 .rel.text.serial_init
                0x00000000817438d8       0x18 arch/arm/cpu/arm926ejs/start.o
 .rel.text.on_baudrate
                0x00000000817438f0       0x18 arch/arm/cpu/arm926ejs/start.o
 .rel.text.ns16550_serial_ofdata_to_platdata
                0x0000000081743908       0x18 arch/arm/cpu/arm926ejs/start.o
 .rel.rodata.ns16550_serial_ids
                0x0000000081743920       0x58 arch/arm/cpu/arm926ejs/start.o
 .rel.rodata.ns16550_serial_ops
                0x0000000081743978       0x20 arch/arm/cpu/arm926ejs/start.o
 .rel.u_boot_list_2_env_clbk_2_baudrate
                0x0000000081743998       0x10 arch/arm/cpu/arm926ejs/start.o
 .rel.u_boot_list_2_uclass_2_serial
                0x00000000817439a8       0x18 arch/arm/cpu/arm926ejs/start.o
 .rel.u_boot_list_2_driver_2_ns16550_serial
                0x00000000817439c0       0x28 arch/arm/cpu/arm926ejs/start.o
 .rel.text.spi_set_speed_mode
                0x00000000817439e8        0x0 arch/arm/cpu/arm926ejs/start.o
 .rel.text.spi_post_probe
                0x00000000817439e8        0x8 arch/arm/cpu/arm926ejs/start.o
 .rel.text.spi_get_bus_and_cs
                0x00000000817439f0        0x0 arch/arm/cpu/arm926ejs/start.o
 .rel.text.spi_slave_ofdata_to_platdata
                0x00000000817439f0       0x58 arch/arm/cpu/arm926ejs/start.o
 .rel.text.sunxi_spi_ofdata_to_platdata
                0x0000000081743a48       0x28 arch/arm/cpu/arm926ejs/start.o
 .rel.text.sunxi_spi_probe
                0x0000000081743a70       0x10 arch/arm/cpu/arm926ejs/start.o
 .rel.text.sunxi_spi_xfer
                0x0000000081743a80       0x20 arch/arm/cpu/arm926ejs/start.o
 .rel.rodata.sunxi_spi_ids
                0x0000000081743aa0       0x20 arch/arm/cpu/arm926ejs/start.o
 .rel.rodata.sunxi_spi_ops
                0x0000000081743ac0       0x28 arch/arm/cpu/arm926ejs/start.o
 .rel.u_boot_list_2_driver_2_spi_generic_drv
                0x0000000081743ae8        0x8 arch/arm/cpu/arm926ejs/start.o
 .rel.u_boot_list_2_uclass_2_spi
                0x0000000081743af0       0x28 arch/arm/cpu/arm926ejs/start.o
 .rel.u_boot_list_2_uclass_2_spi_generic
                0x0000000081743b18        0x8 arch/arm/cpu/arm926ejs/start.o
 .rel.u_boot_list_2_driver_2_sunxi_spi
                0x0000000081743b20       0x28 arch/arm/cpu/arm926ejs/start.o
 .rel.text.usb_get_dr_mode
                0x0000000081743b48        0x0 arch/arm/cpu/arm926ejs/start.o
 .rel.rodata.usb_dr_modes
                0x0000000081743b48        0x0 arch/arm/cpu/arm926ejs/start.o
 .rel.text.usb_ep_autoconfig
                0x0000000081743b48        0x0 arch/arm/cpu/arm926ejs/start.o
 .rel.text.usb_ep_autoconfig_reset
                0x0000000081743b48        0x0 arch/arm/cpu/arm926ejs/start.o
 .rel.text.usb_child_post_bind
                0x0000000081743b48       0x10 arch/arm/cpu/arm926ejs/start.o
 .rel.text.usb_disable_asynch
                0x0000000081743b58        0x8 arch/arm/cpu/arm926ejs/start.o
 .rel.text.usb_stop
                0x0000000081743b60        0x8 arch/arm/cpu/arm926ejs/start.o
 .rel.text.usb_scan_device
                0x0000000081743b68       0x20 arch/arm/cpu/arm926ejs/start.o
 .rel.text.usb_scan_bus.isra.3
                0x0000000081743b88       0x20 arch/arm/cpu/arm926ejs/start.o
 .rel.text.usb_init
                0x0000000081743ba8       0x38 arch/arm/cpu/arm926ejs/start.o
 .rel.u_boot_list_2_driver_2_usb_dev_generic_drv
                0x0000000081743be0        0x8 arch/arm/cpu/arm926ejs/start.o
 .rel.u_boot_list_2_uclass_2_usb
                0x0000000081743be8       0x20 arch/arm/cpu/arm926ejs/start.o
 .rel.u_boot_list_2_uclass_2_usb_dev_generic
                0x0000000081743c08        0x8 arch/arm/cpu/arm926ejs/start.o
 .rel.text.set_default_env
                0x0000000081743c10       0x30 arch/arm/cpu/arm926ejs/start.o
 .rel.text.set_default_vars
                0x0000000081743c40       0x10 arch/arm/cpu/arm926ejs/start.o
 .rel.text.env_import
                0x0000000081743c50       0x28 arch/arm/cpu/arm926ejs/start.o
 .rel.text.env_export
                0x0000000081743c78       0x18 arch/arm/cpu/arm926ejs/start.o
 .rel.text.env_relocate
                0x0000000081743c90        0x8 arch/arm/cpu/arm926ejs/start.o
 .rel.text.env_complete
                0x0000000081743c98       0x18 arch/arm/cpu/arm926ejs/start.o
 .rel.text.env_driver_lookup_default
                0x0000000081743cb0       0x10 arch/arm/cpu/arm926ejs/start.o
 .rel.text.env_get_char
                0x0000000081743cc0        0x8 arch/arm/cpu/arm926ejs/start.o
 .rel.text.env_init
                0x0000000081743cc8        0x8 arch/arm/cpu/arm926ejs/start.o
 .rel.text.env_attr_lookup
                0x0000000081743cd0        0x8 arch/arm/cpu/arm926ejs/start.o
 .rel.text.find_env_callback
                0x0000000081743cd8       0x10 arch/arm/cpu/arm926ejs/start.o
 .rel.text.on_callbacks
                0x0000000081743ce8       0x20 arch/arm/cpu/arm926ejs/start.o
 .rel.text.set_callback
                0x0000000081743d08        0x8 arch/arm/cpu/arm926ejs/start.o
 .rel.text.env_callback_init
                0x0000000081743d10       0x20 arch/arm/cpu/arm926ejs/start.o
 .rel.text.skip_num
                0x0000000081743d30        0x8 arch/arm/cpu/arm926ejs/start.o
 .rel.text.on_flags
                0x0000000081743d38       0x20 arch/arm/cpu/arm926ejs/start.o
 .rel.text.env_flags_parse_vartype
                0x0000000081743d58       0x10 arch/arm/cpu/arm926ejs/start.o
 .rel.text.env_flags_parse_varaccess
                0x0000000081743d68       0x10 arch/arm/cpu/arm926ejs/start.o
 .rel.text.set_flags
                0x0000000081743d78       0x10 arch/arm/cpu/arm926ejs/start.o
 .rel.text.env_flags_parse_varaccess_from_binflags
                0x0000000081743d88        0x0 arch/arm/cpu/arm926ejs/start.o
 .rel.text.env_flags_init
                0x0000000081743d88       0x30 arch/arm/cpu/arm926ejs/start.o
 .rel.text.env_flags_validate
                0x0000000081743db8       0x38 arch/arm/cpu/arm926ejs/start.o
 .rel.text.mmc_get_env_addr
                0x0000000081743df0       0x20 arch/arm/cpu/arm926ejs/start.o
 .rel.text.env_mmc_save
                0x0000000081743e10       0x38 arch/arm/cpu/arm926ejs/start.o
 .rel.text.env_mmc_load
                0x0000000081743e48       0x18 arch/arm/cpu/arm926ejs/start.o
 .rel.data.env_htab
                0x0000000081743e60        0x8 arch/arm/cpu/arm926ejs/start.o
 .rel.u_boot_list_2_env_clbk_2_callbacks
                0x0000000081743e68       0x10 arch/arm/cpu/arm926ejs/start.o
 .rel.u_boot_list_2_env_clbk_2_flags
                0x0000000081743e78       0x10 arch/arm/cpu/arm926ejs/start.o
 .rel.u_boot_list_2_env_driver_2_mmc
                0x0000000081743e88       0x18 arch/arm/cpu/arm926ejs/start.o
 .rel.text.fs_probe_unsupported
                0x0000000081743ea0        0x8 arch/arm/cpu/arm926ejs/start.o
 .rel.text.fs_get_info
                0x0000000081743ea8       0x18 arch/arm/cpu/arm926ejs/start.o
 .rel.text.fs_close
                0x0000000081743ec0        0x8 arch/arm/cpu/arm926ejs/start.o
 .rel.text.fs_set_blk_dev
                0x0000000081743ec8       0x28 arch/arm/cpu/arm926ejs/start.o
 .rel.text.fs_set_blk_dev_with_part
                0x0000000081743ef0       0x20 arch/arm/cpu/arm926ejs/start.o
 .rel.text.fs_uuid
                0x0000000081743f10        0x0 arch/arm/cpu/arm926ejs/start.o
 .rel.text.fs_ls
                0x0000000081743f10        0x8 arch/arm/cpu/arm926ejs/start.o
 .rel.text.fs_exists
                0x0000000081743f18        0x8 arch/arm/cpu/arm926ejs/start.o
 .rel.text.fs_size
                0x0000000081743f20        0x8 arch/arm/cpu/arm926ejs/start.o
 .rel.text.fs_read
                0x0000000081743f28       0x10 arch/arm/cpu/arm926ejs/start.o
 .rel.text.fs_write
                0x0000000081743f38       0x10 arch/arm/cpu/arm926ejs/start.o
 .rel.text.fs_opendir
                0x0000000081743f48       0x20 arch/arm/cpu/arm926ejs/start.o
 .rel.text.fs_readdir
                0x0000000081743f68       0x10 arch/arm/cpu/arm926ejs/start.o
 .rel.text.fs_closedir
                0x0000000081743f78        0x8 arch/arm/cpu/arm926ejs/start.o
 .rel.text.fs_ls_generic
                0x0000000081743f80       0x20 arch/arm/cpu/arm926ejs/start.o
 .rel.text.do_size
                0x0000000081743fa0        0x8 arch/arm/cpu/arm926ejs/start.o
 .rel.text.do_load
                0x0000000081743fa8       0x50 arch/arm/cpu/arm926ejs/start.o
 .rel.text.do_ls
                0x0000000081743ff8        0x8 arch/arm/cpu/arm926ejs/start.o
 .rel.text.do_save
                0x0000000081744000       0x28 arch/arm/cpu/arm926ejs/start.o
 .rel.text.do_fs_uuid
                0x0000000081744028        0x0 arch/arm/cpu/arm926ejs/start.o
 .rel.text.do_fs_type
                0x0000000081744028       0x10 arch/arm/cpu/arm926ejs/start.o
 .rel.text.get_fs
                0x0000000081744038        0x8 arch/arm/cpu/arm926ejs/start.o
 .rel.text.ext4fs_free_node
                0x0000000081744040        0x8 arch/arm/cpu/arm926ejs/start.o
 .rel.text.ext4fs_read_file
                0x0000000081744048        0x8 arch/arm/cpu/arm926ejs/start.o
 .rel.text.ext4fs_ls
                0x0000000081744050       0x10 arch/arm/cpu/arm926ejs/start.o
 .rel.text.ext4fs_read
                0x0000000081744060       0x10 arch/arm/cpu/arm926ejs/start.o
 .rel.text.ext4_read_file
                0x0000000081744070        0x8 arch/arm/cpu/arm926ejs/start.o
 .rel.text.ext4fs_uuid
                0x0000000081744078        0x8 arch/arm/cpu/arm926ejs/start.o
 .rel.text.read_allocated_block
                0x0000000081744080       0xd0 arch/arm/cpu/arm926ejs/start.o
 .rel.text.ext4fs_reinit_global
                0x0000000081744150       0x48 arch/arm/cpu/arm926ejs/start.o
 .rel.text.ext4fs_close
                0x0000000081744198       0x10 arch/arm/cpu/arm926ejs/start.o
 .rel.text.ext4fs_iterate_dir
                0x00000000817441a8       0x30 arch/arm/cpu/arm926ejs/start.o
 .rel.text.ext4fs_find_file1
                0x00000000817441d8       0x10 arch/arm/cpu/arm926ejs/start.o
 .rel.text.ext4fs_find_file
                0x00000000817441e8        0x8 arch/arm/cpu/arm926ejs/start.o
 .rel.text.ext4fs_open
                0x00000000817441f0       0x10 arch/arm/cpu/arm926ejs/start.o
 .rel.text.ext4fs_mount
                0x0000000081744200       0x10 arch/arm/cpu/arm926ejs/start.o
 .rel.text.ext4fs_set_blk_dev
                0x0000000081744210       0x10 arch/arm/cpu/arm926ejs/start.o
 .rel.text.ext4fs_devread
                0x0000000081744220        0x8 arch/arm/cpu/arm926ejs/start.o
 .rel.text.downcase
                0x0000000081744228        0x8 arch/arm/cpu/arm926ejs/start.o
 .rel.text.disk_read
                0x0000000081744230       0x10 arch/arm/cpu/arm926ejs/start.o
 .rel.text.disk_write
                0x0000000081744240       0x20 arch/arm/cpu/arm926ejs/start.o
 .rel.text.flush_dirty_fat_buffer
                0x0000000081744260        0x8 arch/arm/cpu/arm926ejs/start.o
 .rel.text.get_fatent
                0x0000000081744268        0x8 arch/arm/cpu/arm926ejs/start.o
 .rel.text.get_cluster
                0x0000000081744270        0x8 arch/arm/cpu/arm926ejs/start.o
 .rel.text.set_cluster
                0x0000000081744278        0x8 arch/arm/cpu/arm926ejs/start.o
 .rel.text.read_bootsectandvi
                0x0000000081744280       0x20 arch/arm/cpu/arm926ejs/start.o
 .rel.text.fat_itr_root
                0x00000000817442a0       0x10 arch/arm/cpu/arm926ejs/start.o
 .rel.text.set_name
                0x00000000817442b0        0x8 arch/arm/cpu/arm926ejs/start.o
 .rel.text.check_overflow
                0x00000000817442b8        0x8 arch/arm/cpu/arm926ejs/start.o
 .rel.text.flush_dir_table.constprop.8
                0x00000000817442c0       0x20 arch/arm/cpu/arm926ejs/start.o
 .rel.text.do_fat_write
                0x00000000817442e0       0xb0 arch/arm/cpu/arm926ejs/start.o
 .rel.text.fat_set_blk_dev
                0x0000000081744390       0x28 arch/arm/cpu/arm926ejs/start.o
 .rel.text.fat_register_device
                0x00000000817443b8        0x0 arch/arm/cpu/arm926ejs/start.o
 .rel.text.file_fat_detectfs
                0x00000000817443b8       0x70 arch/arm/cpu/arm926ejs/start.o
 .rel.text.file_fat_read_at
                0x0000000081744428       0x20 arch/arm/cpu/arm926ejs/start.o
 .rel.text.fat_read_file
                0x0000000081744448        0x8 arch/arm/cpu/arm926ejs/start.o
 .rel.text.file_fat_write
                0x0000000081744450       0x10 arch/arm/cpu/arm926ejs/start.o
 .rel.text.fs_devread
                0x0000000081744460       0x30 arch/arm/cpu/arm926ejs/start.o
 .rel.data.fstypes
                0x0000000081744490      0x100 arch/arm/cpu/arm926ejs/start.o
 .rel.text.efi_load_pe
                0x0000000081744590       0x38 arch/arm/cpu/arm926ejs/start.o
 .rel.text.indent_string
                0x00000000817445c8        0x8 arch/arm/cpu/arm926ejs/start.o
 .rel.text.__efi_entry_check
                0x00000000817445d0       0x18 arch/arm/cpu/arm926ejs/start.o
 .rel.text.__efi_exit_check
                0x00000000817445e8       0x10 arch/arm/cpu/arm926ejs/start.o
 .rel.text.efi_get_next_monotonic_count
                0x00000000817445f8        0x8 arch/arm/cpu/arm926ejs/start.o
 .rel.text.efi_close_event
                0x0000000081744600        0x8 arch/arm/cpu/arm926ejs/start.o
 .rel.text.efi_restore_tpl
                0x0000000081744608        0x8 arch/arm/cpu/arm926ejs/start.o
 .rel.text.efi_raise_tpl
                0x0000000081744610        0x8 arch/arm/cpu/arm926ejs/start.o
 .rel.text.efi_save_gd
                0x0000000081744618        0x8 arch/arm/cpu/arm926ejs/start.o
 .rel.text.efi_restore_gd
                0x0000000081744620        0x8 arch/arm/cpu/arm926ejs/start.o
 .rel.text.efi_exit
                0x0000000081744628        0x8 arch/arm/cpu/arm926ejs/start.o
 .rel.text.__efi_nesting
                0x0000000081744630        0x0 arch/arm/cpu/arm926ejs/start.o
 .rel.text.__efi_nesting_inc
                0x0000000081744630        0x8 arch/arm/cpu/arm926ejs/start.o
 .rel.text.__efi_nesting_dec
                0x0000000081744638        0x8 arch/arm/cpu/arm926ejs/start.o
 .rel.text.efi_start_image
                0x0000000081744640       0x10 arch/arm/cpu/arm926ejs/start.o
 .rel.text.efi_signal_event
                0x0000000081744650        0x8 arch/arm/cpu/arm926ejs/start.o
 .rel.text.efi_exit_boot_services
                0x0000000081744658       0x18 arch/arm/cpu/arm926ejs/start.o
 .rel.text.efi_signal_event_ext
                0x0000000081744670        0x8 arch/arm/cpu/arm926ejs/start.o
 .rel.text.efi_add_handle
                0x0000000081744678        0x8 arch/arm/cpu/arm926ejs/start.o
 .rel.text.efi_create_event
                0x0000000081744680        0x8 arch/arm/cpu/arm926ejs/start.o
 .rel.text.efi_timer_check
                0x0000000081744688        0x8 arch/arm/cpu/arm926ejs/start.o
 .rel.text.efi_check_event
                0x0000000081744690        0x8 arch/arm/cpu/arm926ejs/start.o
 .rel.text.efi_wait_for_event
                0x0000000081744698       0x10 arch/arm/cpu/arm926ejs/start.o
 .rel.text.efi_set_timer
                0x00000000817446a8        0x8 arch/arm/cpu/arm926ejs/start.o
 .rel.text.efi_search_obj
                0x00000000817446b0        0x8 arch/arm/cpu/arm926ejs/start.o
 .rel.text.efi_locate_protocol
                0x00000000817446b8        0x8 arch/arm/cpu/arm926ejs/start.o
 .rel.text.efi_locate_handle
                0x00000000817446c0        0x8 arch/arm/cpu/arm926ejs/start.o
 .rel.text.efi_locate_device_path
                0x00000000817446c8        0x8 arch/arm/cpu/arm926ejs/start.o
 .rel.text.efi_install_configuration_table
                0x00000000817446d0       0x10 arch/arm/cpu/arm926ejs/start.o
 .rel.text.efi_setup_loaded_image
                0x00000000817446e0       0x38 arch/arm/cpu/arm926ejs/start.o
 .rel.text.efi_load_image_from_path
                0x0000000081744718       0x10 arch/arm/cpu/arm926ejs/start.o
 .rel.text.efi_load_image
                0x0000000081744728        0x8 arch/arm/cpu/arm926ejs/start.o
 .rel.text.efi_runtime_relocate
                0x0000000081744730       0x28 arch/arm/cpu/arm926ejs/start.o
 .rel.text.efi_set_virtual_address_map
                0x0000000081744758       0x18 arch/arm/cpu/arm926ejs/start.o
 .rel.text.efi_add_runtime_mmio
                0x0000000081744770        0x0 arch/arm/cpu/arm926ejs/start.o
 .rel.text.efi_cout_enable_cursor
                0x0000000081744770        0x8 arch/arm/cpu/arm926ejs/start.o
 .rel.text.efi_cout_set_cursor_position
                0x0000000081744778       0x10 arch/arm/cpu/arm926ejs/start.o
 .rel.text.efi_cout_clear_screen
                0x0000000081744788        0x8 arch/arm/cpu/arm926ejs/start.o
 .rel.text.efi_cout_set_attribute
                0x0000000081744790       0x18 arch/arm/cpu/arm926ejs/start.o
 .rel.text.efi_cout_output_string
                0x00000000817447a8       0x10 arch/arm/cpu/arm926ejs/start.o
 .rel.text.efi_console_timer_notify
                0x00000000817447b8        0x8 arch/arm/cpu/arm926ejs/start.o
 .rel.text.efi_cout_set_mode
                0x00000000817447c0        0x8 arch/arm/cpu/arm926ejs/start.o
 .rel.text.efi_cout_query_mode
                0x00000000817447c8       0x30 arch/arm/cpu/arm926ejs/start.o
 .rel.text.efi_console_register
                0x00000000817447f8       0x68 arch/arm/cpu/arm926ejs/start.o
 .rel.text.efi_find_free_memory
                0x0000000081744860        0x8 arch/arm/cpu/arm926ejs/start.o
 .rel.text.efi_add_memory_map
                0x0000000081744868       0x10 arch/arm/cpu/arm926ejs/start.o
 .rel.text.efi_get_memory_map
                0x0000000081744878        0x8 arch/arm/cpu/arm926ejs/start.o
 .rel.text.efi_memory_init
                0x0000000081744880       0x10 arch/arm/cpu/arm926ejs/start.o
 .rel.text.efi_convert_single_device_node_to_text
                0x0000000081744890       0x88 arch/arm/cpu/arm926ejs/start.o
 .rel.text.dp_fill
                0x0000000081744918        0x8 arch/arm/cpu/arm926ejs/start.o
 .rel.text.find_obj
                0x0000000081744920       0x10 arch/arm/cpu/arm926ejs/start.o
 .rel.text.efi_dp_append
                0x0000000081744930        0x0 arch/arm/cpu/arm926ejs/start.o
 .rel.text.efi_dp_append_node
                0x0000000081744930        0x0 arch/arm/cpu/arm926ejs/start.o
 .rel.text.efi_dp_from_dev
                0x0000000081744930        0x0 arch/arm/cpu/arm926ejs/start.o
 .rel.text.efi_dp_from_part
                0x0000000081744930       0x10 arch/arm/cpu/arm926ejs/start.o
 .rel.text.efi_dp_from_file
                0x0000000081744940       0x10 arch/arm/cpu/arm926ejs/start.o
 .rel.text.efi_dp_from_eth
                0x0000000081744950        0x8 arch/arm/cpu/arm926ejs/start.o
 .rel.text.efi_dp_from_mem
                0x0000000081744958        0x8 arch/arm/cpu/arm926ejs/start.o
 .rel.text.efi_file_getinfo
                0x0000000081744960        0x8 arch/arm/cpu/arm926ejs/start.o
 .rel.text.file_open
                0x0000000081744968       0x28 arch/arm/cpu/arm926ejs/start.o
 .rel.text.efi_file_from_path
                0x0000000081744990        0x8 arch/arm/cpu/arm926ejs/start.o
 .rel.text.efi_simple_file_system
                0x0000000081744998        0x8 arch/arm/cpu/arm926ejs/start.o
 .rel.text.efi_to_native
                0x00000000817449a0        0x8 arch/arm/cpu/arm926ejs/start.o
 .rel.text.parse_attr.part.1
                0x00000000817449a8       0x20 arch/arm/cpu/arm926ejs/start.o
 .rel.text.efi_get_variable
                0x00000000817449c8       0x18 arch/arm/cpu/arm926ejs/start.o
 .rel.text.efi_set_variable
                0x00000000817449e0       0x48 arch/arm/cpu/arm926ejs/start.o
 .rel.text.get_var.constprop.0
                0x0000000081744a28       0x10 arch/arm/cpu/arm926ejs/start.o
 .rel.text.efi_bootmgr_load
                0x0000000081744a38       0x30 arch/arm/cpu/arm926ejs/start.o
 .rel.text.efi_watchdog_timer_notify
                0x0000000081744a68       0x10 arch/arm/cpu/arm926ejs/start.o
 .rel.text.efi_set_watchdog
                0x0000000081744a78        0x8 arch/arm/cpu/arm926ejs/start.o
 .rel.text.efi_watchdog_register
                0x0000000081744a80       0x20 arch/arm/cpu/arm926ejs/start.o
 .rel.text.efi_disk_add_dev.isra.0.part.1
                0x0000000081744aa0       0x40 arch/arm/cpu/arm926ejs/start.o
 .rel.text.efi_disk_register
                0x0000000081744ae0       0x20 arch/arm/cpu/arm926ejs/start.o
 .rel.text.efi_net_push
                0x0000000081744b00       0x10 arch/arm/cpu/arm926ejs/start.o
 .rel.text.efi_network_timer_notify
                0x0000000081744b10       0x18 arch/arm/cpu/arm926ejs/start.o
 .rel.text.efi_net_get_status
                0x0000000081744b28       0x10 arch/arm/cpu/arm926ejs/start.o
 .rel.text.efi_net_transmit
                0x0000000081744b38        0x8 arch/arm/cpu/arm926ejs/start.o
 .rel.text.efi_net_receive
                0x0000000081744b40       0x18 arch/arm/cpu/arm926ejs/start.o
 .rel.text.efi_net_set_dhcp_ack
                0x0000000081744b58        0x8 arch/arm/cpu/arm926ejs/start.o
 .rel.text.efi_net_register
                0x0000000081744b60       0xb8 arch/arm/cpu/arm926ejs/start.o
 .rel.text.efi_smbios_register
                0x0000000081744c18        0x8 arch/arm/cpu/arm926ejs/start.o
 .rel.text.crc7
                0x0000000081744c20        0x0 arch/arm/cpu/arm926ejs/start.o
 .rel.text.crc16_ccitt
                0x0000000081744c20        0x8 arch/arm/cpu/arm926ejs/start.o
 .rel.text.smbios_write_type3
                0x0000000081744c28        0x8 arch/arm/cpu/arm926ejs/start.o
 .rel.text.smbios_write_type2
                0x0000000081744c30       0x10 arch/arm/cpu/arm926ejs/start.o
 .rel.text.smbios_write_type0
                0x0000000081744c40       0x18 arch/arm/cpu/arm926ejs/start.o
 .rel.text.smbios_write_type1
                0x0000000081744c58       0x18 arch/arm/cpu/arm926ejs/start.o
 .rel.text.smbios_write_type4
                0x0000000081744c70        0x8 arch/arm/cpu/arm926ejs/start.o
 .rel.text.write_smbios_table
                0x0000000081744c78       0x18 arch/arm/cpu/arm926ejs/start.o
 .rel.text.initcall_run_list
                0x0000000081744c90        0x8 arch/arm/cpu/arm926ejs/start.o
 .rel.text.lmb_alloc_base
                0x0000000081744c98        0x8 arch/arm/cpu/arm926ejs/start.o
 .rel.text.list_sort
                0x0000000081744ca0        0x8 arch/arm/cpu/arm926ejs/start.o
 .rel.text.inflate_fast
                0x0000000081744ca8       0x18 arch/arm/cpu/arm926ejs/start.o
 .rel.text.inflate_table
                0x0000000081744cc0       0x20 arch/arm/cpu/arm926ejs/start.o
 .rel.text.inflateInit2_
                0x0000000081744ce0       0x10 arch/arm/cpu/arm926ejs/start.o
 .rel.text.inflate
                0x0000000081744cf0       0xa0 arch/arm/cpu/arm926ejs/start.o
 .rel.text.gzip_parse_header
                0x0000000081744d90       0x10 arch/arm/cpu/arm926ejs/start.o
 .rel.text.zunzip
                0x0000000081744da0       0x28 arch/arm/cpu/arm926ejs/start.o
 .rel.text.fdt_strerror
                0x0000000081744dc8       0x20 arch/arm/cpu/arm926ejs/start.o
 .rel.text.fdt_create_empty_tree
                0x0000000081744de8        0x0 arch/arm/cpu/arm926ejs/start.o
 .rel.text.fdt_address_cells
                0x0000000081744de8        0x8 arch/arm/cpu/arm926ejs/start.o
 .rel.text.fdt_size_cells
                0x0000000081744df0        0x8 arch/arm/cpu/arm926ejs/start.o
 .rel.text.overlay_adjust_node_phandles
                0x0000000081744df8       0x10 arch/arm/cpu/arm926ejs/start.o
 .rel.text.overlay_get_target
                0x0000000081744e08       0x10 arch/arm/cpu/arm926ejs/start.o
 .rel.text.fdt_overlay_apply
                0x0000000081744e18       0x38 arch/arm/cpu/arm926ejs/start.o
 .rel.text.fdt_get_phandle
                0x0000000081744e50       0x10 arch/arm/cpu/arm926ejs/start.o
 .rel.text.fdt_get_alias_namelen
                0x0000000081744e60        0x8 arch/arm/cpu/arm926ejs/start.o
 .rel.text.fdt_node_check_compatible
                0x0000000081744e68        0x0 arch/arm/cpu/arm926ejs/start.o
 .rel.text.fdt_add_alias_regions
                0x0000000081744e68        0x0 arch/arm/cpu/arm926ejs/start.o
 .rel.text.fdtdec_get_compatible
                0x0000000081744e68        0x0 arch/arm/cpu/arm926ejs/start.o
 .rel.text.fdtdec_get_is_enabled
                0x0000000081744e68       0x10 arch/arm/cpu/arm926ejs/start.o
 .rel.text.fdtdec_lookup
                0x0000000081744e78        0x0 arch/arm/cpu/arm926ejs/start.o
 .rel.text.fdtdec_next_compatible
                0x0000000081744e78        0x0 arch/arm/cpu/arm926ejs/start.o
 .rel.text.fdtdec_next_compatible_subnode
                0x0000000081744e78        0x0 arch/arm/cpu/arm926ejs/start.o
 .rel.text.fdtdec_next_alias
                0x0000000081744e78        0x0 arch/arm/cpu/arm926ejs/start.o
 .rel.text.fdtdec_add_aliases_for_id
                0x0000000081744e78        0x0 arch/arm/cpu/arm926ejs/start.o
 .rel.text.fdtdec_get_alias_seq
                0x0000000081744e78        0x8 arch/arm/cpu/arm926ejs/start.o
 .rel.text.fdtdec_get_chosen_prop
                0x0000000081744e80        0x8 arch/arm/cpu/arm926ejs/start.o
 .rel.text.fdtdec_prepare_fdt
                0x0000000081744e88        0x8 arch/arm/cpu/arm926ejs/start.o
 .rel.text.fdtdec_get_config_int
                0x0000000081744e90        0x8 arch/arm/cpu/arm926ejs/start.o
 .rel.text.fdtdec_get_config_bool
                0x0000000081744e98        0x0 arch/arm/cpu/arm926ejs/start.o
 .rel.text.fdtdec_get_config_string
                0x0000000081744e98        0x8 arch/arm/cpu/arm926ejs/start.o
 .rel.text.fdtdec_decode_memory_region
                0x0000000081744ea0        0x0 arch/arm/cpu/arm926ejs/start.o
 .rel.text.fdtdec_decode_display_timing
                0x0000000081744ea0        0x0 arch/arm/cpu/arm926ejs/start.o
 .rel.text.fdtdec_setup_memory_size
                0x0000000081744ea0        0x0 arch/arm/cpu/arm926ejs/start.o
 .rel.text.fdtdec_setup_memory_banksize
                0x0000000081744ea0        0x0 arch/arm/cpu/arm926ejs/start.o
 .rel.text.fdtdec_setup
                0x0000000081744ea0       0x10 arch/arm/cpu/arm926ejs/start.o
 .rel.text.match_string.isra.2
                0x0000000081744eb0        0x8 arch/arm/cpu/arm926ejs/start.o
 .rel.text.hcreate_r
                0x0000000081744eb8        0x8 arch/arm/cpu/arm926ejs/start.o
 .rel.text.hdestroy_r
                0x0000000081744ec0        0x8 arch/arm/cpu/arm926ejs/start.o
 .rel.text.hmatch_r
                0x0000000081744ec8        0x8 arch/arm/cpu/arm926ejs/start.o
 .rel.text.hsearch_r
                0x0000000081744ed0        0x8 arch/arm/cpu/arm926ejs/start.o
 .rel.text.hdelete_r
                0x0000000081744ed8        0x8 arch/arm/cpu/arm926ejs/start.o
 .rel.text.hexport_r
                0x0000000081744ee0       0x18 arch/arm/cpu/arm926ejs/start.o
 .rel.text.himport_r
                0x0000000081744ef8       0x20 arch/arm/cpu/arm926ejs/start.o
 .rel.text.display_options_get_banner_priv
                0x0000000081744f18       0x28 arch/arm/cpu/arm926ejs/start.o
 .rel.text.display_options
                0x0000000081744f40        0x8 arch/arm/cpu/arm926ejs/start.o
 .rel.text.print_freq
                0x0000000081744f48        0x0 arch/arm/cpu/arm926ejs/start.o
 .rel.text.print_size
                0x0000000081744f48       0x28 arch/arm/cpu/arm926ejs/start.o
 .rel.text.print_buffer
                0x0000000081744f70       0x28 arch/arm/cpu/arm926ejs/start.o
 .rel.text.crc32_no_comp
                0x0000000081744f98        0x8 arch/arm/cpu/arm926ejs/start.o
 .rel.text.hang
                0x0000000081744fa0        0x8 arch/arm/cpu/arm926ejs/start.o
 .rel.text.skip_spaces
                0x0000000081744fa8        0x8 arch/arm/cpu/arm926ejs/start.o
 .rel.text.strim
                0x0000000081744fb0        0x8 arch/arm/cpu/arm926ejs/start.o
 .rel.text.strncasecmp
                0x0000000081744fb8        0x8 arch/arm/cpu/arm926ejs/start.o
 .rel.text.strtok
                0x0000000081744fc0        0x0 arch/arm/cpu/arm926ejs/start.o
 .rel.text.uuid_str_valid
                0x0000000081744fc0        0x8 arch/arm/cpu/arm926ejs/start.o
 .rel.text.uuid_bin_to_str
                0x0000000081744fc8       0x10 arch/arm/cpu/arm926ejs/start.o
 .rel.text.rand
                0x0000000081744fd8        0x8 arch/arm/cpu/arm926ejs/start.o
 .rel.text.srand
                0x0000000081744fe0        0x0 arch/arm/cpu/arm926ejs/start.o
 .rel.text.number
                0x0000000081744fe0        0x8 arch/arm/cpu/arm926ejs/start.o
 .rel.text.string
                0x0000000081744fe8        0x8 arch/arm/cpu/arm926ejs/start.o
 .rel.text.vsnprintf_internal
                0x0000000081744ff0       0x18 arch/arm/cpu/arm926ejs/start.o
 .rel.text.__assert_fail
                0x0000000081745008        0x0 arch/arm/cpu/arm926ejs/start.o
 .rel.text.simple_itoa
                0x0000000081745008        0x8 arch/arm/cpu/arm926ejs/start.o
 .rel.text.print_grouped_ull
                0x0000000081745010        0x0 arch/arm/cpu/arm926ejs/start.o
 .rel.text._parse_integer_fixup_radix
                0x0000000081745010        0x8 arch/arm/cpu/arm926ejs/start.o
 .rel.text.simple_strtoul
                0x0000000081745018        0x8 arch/arm/cpu/arm926ejs/start.o
 .rel.text.simple_strtoull
                0x0000000081745020        0x8 arch/arm/cpu/arm926ejs/start.o
 .rel.text.trailing_strtoln
                0x0000000081745028        0x8 arch/arm/cpu/arm926ejs/start.o
 .rel.text.strmhz
                0x0000000081745030        0x0 arch/arm/cpu/arm926ejs/start.o
 .rel.rodata.efi_boot_services
                0x0000000081745030      0x150 arch/arm/cpu/arm926ejs/start.o
 .rel.rodata.efi_runtime_detach_list
                0x0000000081745180       0x80 arch/arm/cpu/arm926ejs/start.o
 .rel.rodata.efi_device_path_to_text
                0x0000000081745200       0x10 arch/arm/cpu/arm926ejs/start.o
 .rel.rodata.efi_file_handle_protocol
                0x0000000081745210       0x50 arch/arm/cpu/arm926ejs/start.o
 .rel.rodata.smbios_write_funcs
                0x0000000081745260       0x38 arch/arm/cpu/arm926ejs/start.o
 .rel.rodata.z_errmsg
                0x0000000081745298        0x0 arch/arm/cpu/arm926ejs/start.o
 .rel.rodata.fdt_errtable
                0x0000000081745298       0x88 arch/arm/cpu/arm926ejs/start.o
 .rel.rodata.compat_names
                0x0000000081745320        0x0 arch/arm/cpu/arm926ejs/start.o
 .rel.data.efi_obj_list
                0x0000000081745320       0x10 arch/arm/cpu/arm926ejs/start.o
 .rel.data.efi_runtime_mmio
                0x0000000081745330       0x10 arch/arm/cpu/arm926ejs/start.o
 .rel.data.efi_con_in
                0x0000000081745340       0x10 arch/arm/cpu/arm926ejs/start.o
 .rel.data.efi_con_out
                0x0000000081745350       0x50 arch/arm/cpu/arm926ejs/start.o
 .rel.data.efi_console_control
                0x00000000817453a0       0x18 arch/arm/cpu/arm926ejs/start.o
 .rel.data.efi_mem
                0x00000000817453b8       0x10 arch/arm/cpu/arm926ejs/start.o
 .rel.data.current
                0x00000000817453c8        0x0 arch/arm/cpu/arm926ejs/start.o
 .rel.text.arp_init
                0x00000000817453c8       0x30 arch/arm/cpu/arm926ejs/start.o
 .rel.text.arp_raw_request
                0x00000000817453f8       0x18 arch/arm/cpu/arm926ejs/start.o
 .rel.text.arp_request
                0x0000000081745410       0x38 arch/arm/cpu/arm926ejs/start.o
 .rel.text.arp_timeout_check
                0x0000000081745448       0x28 arch/arm/cpu/arm926ejs/start.o
 .rel.text.arp_receive
                0x0000000081745470       0x40 arch/arm/cpu/arm926ejs/start.o
 .rel.text.dhcp_extended
                0x00000000817454b0       0x28 arch/arm/cpu/arm926ejs/start.o
 .rel.text.dhcp_process_options
                0x00000000817454d8       0x68 arch/arm/cpu/arm926ejs/start.o
 .rel.text.dhcp_packet_process_options
                0x0000000081745540        0x8 arch/arm/cpu/arm926ejs/start.o
 .rel.text.dhcp_handler
                0x0000000081745548       0x90 arch/arm/cpu/arm926ejs/start.o
 .rel.text.bootp_reset
                0x00000000817455d8       0x20 arch/arm/cpu/arm926ejs/start.o
 .rel.text.bootp_request
                0x00000000817455f8       0x78 arch/arm/cpu/arm926ejs/start.o
 .rel.text.bootp_timeout_handler
                0x0000000081745670       0x28 arch/arm/cpu/arm926ejs/start.o
 .rel.text.eth_post_probe
                0x0000000081745698       0x30 arch/arm/cpu/arm926ejs/start.o
 .rel.text.eth_write_hwaddr
                0x00000000817456c8       0x10 arch/arm/cpu/arm926ejs/start.o
 .rel.text.eth_post_bind
                0x00000000817456d8        0x8 arch/arm/cpu/arm926ejs/start.o
 .rel.text.eth_get_dev
                0x00000000817456e0        0x8 arch/arm/cpu/arm926ejs/start.o
 .rel.text.eth_set_dev
                0x00000000817456e8        0x8 arch/arm/cpu/arm926ejs/start.o
 .rel.text.eth_get_dev_by_name
                0x00000000817456f0        0x8 arch/arm/cpu/arm926ejs/start.o
 .rel.text.eth_init
                0x00000000817456f8       0x28 arch/arm/cpu/arm926ejs/start.o
 .rel.text.eth_initialize
                0x0000000081745720       0x28 arch/arm/cpu/arm926ejs/start.o
 .rel.text.eth_env_set_enetaddr
                0x0000000081745748        0x8 arch/arm/cpu/arm926ejs/start.o
 .rel.text.eth_env_get_enetaddr_by_index
                0x0000000081745750       0x10 arch/arm/cpu/arm926ejs/start.o
 .rel.text.eth_env_set_enetaddr_by_index
                0x0000000081745760       0x10 arch/arm/cpu/arm926ejs/start.o
 .rel.text.eth_mac_skip
                0x0000000081745770       0x10 arch/arm/cpu/arm926ejs/start.o
 .rel.text.eth_get_name
                0x0000000081745780        0x8 arch/arm/cpu/arm926ejs/start.o
 .rel.text.eth_current_changed
                0x0000000081745788       0x18 arch/arm/cpu/arm926ejs/start.o
 .rel.text.eth_try_another
                0x00000000817457a0       0x20 arch/arm/cpu/arm926ejs/start.o
 .rel.text.eth_set_current
                0x00000000817457c0       0x20 arch/arm/cpu/arm926ejs/start.o
 .rel.text.net_clear_handlers
                0x00000000817457e0       0x20 arch/arm/cpu/arm926ejs/start.o
 .rel.text.start_again_timeout_handler
                0x0000000081745800        0x8 arch/arm/cpu/arm926ejs/start.o
 .rel.text.on_ipaddr
                0x0000000081745808        0x8 arch/arm/cpu/arm926ejs/start.o
 .rel.text.on_gatewayip
                0x0000000081745810        0x8 arch/arm/cpu/arm926ejs/start.o
 .rel.text.on_netmask
                0x0000000081745818        0x8 arch/arm/cpu/arm926ejs/start.o
 .rel.text.on_serverip
                0x0000000081745820        0x8 arch/arm/cpu/arm926ejs/start.o
 .rel.text.net_init_loop.part.0
                0x0000000081745828        0x8 arch/arm/cpu/arm926ejs/start.o
 .rel.text.net_auto_load
                0x0000000081745830       0x18 arch/arm/cpu/arm926ejs/start.o
 .rel.text.net_init
                0x0000000081745848       0x20 arch/arm/cpu/arm926ejs/start.o
 .rel.text.net_start_again
                0x0000000081745868       0x78 arch/arm/cpu/arm926ejs/start.o
 .rel.text.net_loop
                0x00000000817458e0       0xd0 arch/arm/cpu/arm926ejs/start.o
 .rel.text.net_get_udp_handler
                0x00000000817459b0        0x0 arch/arm/cpu/arm926ejs/start.o
 .rel.text.net_set_udp_handler
                0x00000000817459b0       0x10 arch/arm/cpu/arm926ejs/start.o
 .rel.text.net_get_arp_handler
                0x00000000817459c0        0x8 arch/arm/cpu/arm926ejs/start.o
 .rel.text.net_set_arp_handler
                0x00000000817459c8        0x0 arch/arm/cpu/arm926ejs/start.o
 .rel.text.net_set_timeout_handler
                0x00000000817459c8       0x18 arch/arm/cpu/arm926ejs/start.o
 .rel.text.net_process_received_packet
                0x00000000817459e0       0x40 arch/arm/cpu/arm926ejs/start.o
 .rel.text.net_eth_hdr_size
                0x0000000081745a20        0x8 arch/arm/cpu/arm926ejs/start.o
 .rel.text.net_set_ether
                0x0000000081745a28       0x10 arch/arm/cpu/arm926ejs/start.o
 .rel.text.net_update_ether
                0x0000000081745a38        0x8 arch/arm/cpu/arm926ejs/start.o
 .rel.text.net_set_ip_header
                0x0000000081745a40        0x8 arch/arm/cpu/arm926ejs/start.o
 .rel.text.net_set_udp_header
                0x0000000081745a48        0x8 arch/arm/cpu/arm926ejs/start.o
 .rel.text.net_send_udp_packet
                0x0000000081745a50       0x40 arch/arm/cpu/arm926ejs/start.o
 .rel.text.on_bootfile
                0x0000000081745a90        0x8 arch/arm/cpu/arm926ejs/start.o
 .rel.text.ip_to_string
                0x0000000081745a98        0x8 arch/arm/cpu/arm926ejs/start.o
 .rel.text.vlan_to_string
                0x0000000081745aa0        0x0 arch/arm/cpu/arm926ejs/start.o
 .rel.text.on_nvlan
                0x0000000081745aa0        0x8 arch/arm/cpu/arm926ejs/start.o
 .rel.text.on_vlan
                0x0000000081745aa8        0x8 arch/arm/cpu/arm926ejs/start.o
 .rel.text.rpc_lookup_reply
                0x0000000081745ab0       0x18 arch/arm/cpu/arm926ejs/start.o
 .rel.text.nfs_mount_reply
                0x0000000081745ac8       0x18 arch/arm/cpu/arm926ejs/start.o
 .rel.text.nfs_umountall_reply
                0x0000000081745ae0       0x18 arch/arm/cpu/arm926ejs/start.o
 .rel.text.nfs_lookup_reply
                0x0000000081745af8       0x30 arch/arm/cpu/arm926ejs/start.o
 .rel.text.nfs_readlink_reply
                0x0000000081745b28       0x20 arch/arm/cpu/arm926ejs/start.o
 .rel.text.rpc_req
                0x0000000081745b48       0x40 arch/arm/cpu/arm926ejs/start.o
 .rel.text.nfs_read_req
                0x0000000081745b88       0x18 arch/arm/cpu/arm926ejs/start.o
 .rel.text.nfs_read_reply.isra.0
                0x0000000081745ba0       0x30 arch/arm/cpu/arm926ejs/start.o
 .rel.text.nfs_readlink_req
                0x0000000081745bd0       0x18 arch/arm/cpu/arm926ejs/start.o
 .rel.text.nfs_lookup_req
                0x0000000081745be8       0x10 arch/arm/cpu/arm926ejs/start.o
 .rel.text.nfs_umountall_req
                0x0000000081745bf8       0x10 arch/arm/cpu/arm926ejs/start.o
 .rel.text.nfs_send
                0x0000000081745c08       0x30 arch/arm/cpu/arm926ejs/start.o
 .rel.text.nfs_handler
                0x0000000081745c38       0x70 arch/arm/cpu/arm926ejs/start.o
 .rel.text.nfs_timeout_handler
                0x0000000081745ca8       0x20 arch/arm/cpu/arm926ejs/start.o
 .rel.text.nfs_start
                0x0000000081745cc8       0x88 arch/arm/cpu/arm926ejs/start.o
 .rel.text.ping_timeout_handler
                0x0000000081745d50        0x8 arch/arm/cpu/arm926ejs/start.o
 .rel.text.ping_start
                0x0000000081745d58       0x58 arch/arm/cpu/arm926ejs/start.o
 .rel.text.ping_receive
                0x0000000081745db0       0x18 arch/arm/cpu/arm926ejs/start.o
 .rel.text.tftp_send
                0x0000000081745dc8       0x80 arch/arm/cpu/arm926ejs/start.o
 .rel.text.tftp_handler
                0x0000000081745e48       0xd0 arch/arm/cpu/arm926ejs/start.o
 .rel.text.tftp_timeout_handler
                0x0000000081745f18       0x40 arch/arm/cpu/arm926ejs/start.o
 .rel.text.tftp_start
                0x0000000081745f58      0x148 arch/arm/cpu/arm926ejs/start.o
 .rel.u_boot_list_2_env_clbk_2_ethaddr
                0x00000000817460a0       0x10 arch/arm/cpu/arm926ejs/start.o
 .rel.u_boot_list_2_uclass_2_eth
                0x00000000817460b0       0x28 arch/arm/cpu/arm926ejs/start.o
 .rel.u_boot_list_2_env_clbk_2_bootfile
                0x00000000817460d8       0x10 arch/arm/cpu/arm926ejs/start.o
 .rel.u_boot_list_2_env_clbk_2_gatewayip
                0x00000000817460e8       0x10 arch/arm/cpu/arm926ejs/start.o
 .rel.u_boot_list_2_env_clbk_2_ipaddr
                0x00000000817460f8       0x10 arch/arm/cpu/arm926ejs/start.o
 .rel.u_boot_list_2_env_clbk_2_netmask
                0x0000000081746108       0x10 arch/arm/cpu/arm926ejs/start.o
 .rel.u_boot_list_2_env_clbk_2_nvlan
                0x0000000081746118       0x10 arch/arm/cpu/arm926ejs/start.o
 .rel.u_boot_list_2_env_clbk_2_serverip
                0x0000000081746128       0x10 arch/arm/cpu/arm926ejs/start.o
 .rel.u_boot_list_2_env_clbk_2_vlan
                0x0000000081746138       0x10 arch/arm/cpu/arm926ejs/start.o
 .rel.text.do_dm
                0x0000000081746148        0x8 arch/arm/cpu/arm926ejs/start.o
 .rel.data.test_commands
                0x0000000081746150       0x60 arch/arm/cpu/arm926ejs/start.o
 .rel.u_boot_list_2_cmd_2_dm
                0x00000000817461b0       0x20 arch/arm/cpu/arm926ejs/start.o
 .rel.text.raise
                0x00000000817461d0        0x0 arch/arm/cpu/arm926ejs/start.o

.rel_dyn_end    0x00000000817461d0        0x0
 *(.__rel_dyn_end)
 .__rel_dyn_end
                0x00000000817461d0        0x0 arch/arm/lib/built-in.o

.end            0x00000000817461d0        0x0
 *(.__end)
 .__end         0x00000000817461d0        0x0 arch/arm/lib/built-in.o
                0x00000000817461d0                _image_binary_end = .
                0x0000000081747000                . = ALIGN (0x1000)

.mmutable
 *(.mmutable)

.bss_start      0x000000008173dcd8        0x0
 *(.__bss_start)
 .__bss_start   0x000000008173dcd8        0x0 arch/arm/lib/built-in.o
                0x000000008173dcd8                __bss_start
                0x000000008173dcd8                __bss_base = .

.bss            0x000000008173dcd8    0x3b164
 *(.bss*)
 .bss.params    0x000000008173dcd8        0x4 arch/arm/lib/built-in.o
 .bss.bootefi_device_path
                0x000000008173dcdc        0x4 cmd/built-in.o
 .bss.bootefi_image_path
                0x000000008173dce0        0x4 cmd/built-in.o
 .bss.efi_obj_list_initalized
                0x000000008173dce4        0x1 cmd/built-in.o
 *fill*         0x000000008173dce5        0x3 
 .bss.data.8024
                0x000000008173dce8      0x400 cmd/built-in.o
 .bss.working_fdt
                0x000000008173e0e8        0x4 cmd/built-in.o
                0x000000008173e0e8                working_fdt
 .bss.a_b       0x000000008173e0ec       0x18 cmd/built-in.o
 .bss.bin_start_address
                0x000000008173e104        0x4 cmd/built-in.o
 .bss.his_eol   0x000000008173e108        0x1 cmd/built-in.o
 .bss.his_pad_char
                0x000000008173e109        0x1 cmd/built-in.o
 *fill*         0x000000008173e10a        0x2 
 .bss.his_pad_count
                0x000000008173e10c        0x4 cmd/built-in.o
 .bss.his_quote
                0x000000008173e110        0x1 cmd/built-in.o
 *fill*         0x000000008173e111        0x3 
 .bss.k_data_escape
                0x000000008173e114        0x4 cmd/built-in.o
 .bss.k_data_escape_saved
                0x000000008173e118        0x4 cmd/built-in.o
 .bss.os_data_addr
                0x000000008173e11c        0x4 cmd/built-in.o
 .bss.os_data_addr_saved
                0x000000008173e120        0x4 cmd/built-in.o
 .bss.os_data_char
                0x000000008173e124        0x4 cmd/built-in.o
 .bss.os_data_init
                0x000000008173e128        0x4 cmd/built-in.o
 .bss.os_data_state
                0x000000008173e12c        0x4 cmd/built-in.o
 .bss.os_data_state_saved
                0x000000008173e130        0x4 cmd/built-in.o
 .bss.send_parms
                0x000000008173e134       0x14 cmd/built-in.o
 .bss.send_ptr  0x000000008173e148        0x4 cmd/built-in.o
 .bss.base_address
                0x000000008173e14c        0x4 cmd/built-in.o
 .bss.dp_last_addr
                0x000000008173e150        0x4 cmd/built-in.o
 .bss.dp_last_size
                0x000000008173e154        0x4 cmd/built-in.o
 .bss.mm_last_addr
                0x000000008173e158        0x4 cmd/built-in.o
 .bss.mm_last_size
                0x000000008173e15c        0x4 cmd/built-in.o
 .bss.last_addr_hi
                0x000000008173e160        0x4 cmd/built-in.o
 .bss.last_addr_lo
                0x000000008173e164        0x4 cmd/built-in.o
 .bss.last_data
                0x000000008173e168        0x4 cmd/built-in.o
 .bss.last_mask
                0x000000008173e16c        0x4 cmd/built-in.o
 .bss.last_op   0x000000008173e170        0x2 cmd/built-in.o
 *fill*         0x000000008173e172        0x2 
 .bss.last_reg_hi
                0x000000008173e174        0x4 cmd/built-in.o
 .bss.last_reg_lo
                0x000000008173e178        0x4 cmd/built-in.o
 .bss.do_getfile
                0x000000008173e17c        0x4 cmd/built-in.o
 .bss.fs_argv   0x000000008173e180       0x14 cmd/built-in.o
 .bss.is_pxe    0x000000008173e194        0x1 cmd/built-in.o
 .bss.buf.7596  0x000000008173e195       0x28 common/built-in.o
 *fill*         0x000000008173e1bd        0x3 
 .bss.do_repeat
                0x000000008173e1c0        0x4 common/built-in.o
 .bss.flag_repeat
                0x000000008173e1c4        0x4 common/built-in.o
 .bss.ifs       0x000000008173e1c8        0x4 common/built-in.o
 .bss.last_return_code
                0x000000008173e1cc        0x4 common/built-in.o
 .bss.map       0x000000008173e1d0      0x100 common/built-in.o
 .bss.the_command.7396
                0x000000008173e2d0      0x401 common/built-in.o
 *fill*         0x000000008173e6d1        0x3 
 .bss.top_vars  0x000000008173e6d4        0x4 common/built-in.o
 .bss.stored_bootdelay
                0x000000008173e6d8        0x4 common/built-in.o
 .bss.monitor_flash_len
                0x000000008173e6dc        0x4 common/built-in.o
                0x000000008173e6dc                monitor_flash_len
 .bss.images    0x000000008173e6e0      0x130 common/built-in.o
                0x000000008173e6e0                images
 .bss.current_mii
                0x000000008173e810        0x4 common/built-in.o
 .bss.mii_devs  0x000000008173e814        0x8 common/built-in.o
 .bss.usb_started
                0x000000008173e81c        0x1 common/built-in.o
                0x000000008173e81c                usb_started
 *fill*         0x000000008173e81d        0x3 
 .bss.running.10057
                0x000000008173e820        0x4 common/built-in.o
 .bss.CBWTag    0x000000008173e824        0x4 common/built-in.o
 *fill*         0x000000008173e828       0x18 
 .bss.usb_ccb   0x000000008173e840       0xa0 common/built-in.o
 .bss.usb_dev_desc
                0x000000008173e8e0      0x3b8 common/built-in.o
 .bss.usb_max_devs
                0x000000008173ec98        0x4 common/built-in.o
 .bss.usb_stor  0x000000008173ec9c      0x188 common/built-in.o
 .bss.kbd_testc_tms
                0x000000008173ee24        0x4 common/built-in.o
 .bss.console_buffer
                0x000000008173ee28      0x401 common/built-in.o
                0x000000008173ee28                console_buffer
 *fill*         0x000000008173f229        0x3 
 .bss.hist_add_idx
                0x000000008173f22c        0x4 common/built-in.o
 .bss.hist_lines
                0x000000008173f230     0x5014 common/built-in.o
 .bss.hist_list
                0x0000000081744244       0x50 common/built-in.o
 .bss.hist_max  0x0000000081744294        0x4 common/built-in.o
 .bss.hist_num  0x0000000081744298        0x4 common/built-in.o
 .bss.initted.7262
                0x000000008174429c        0x4 common/built-in.o
 .bss.ctrlc_disabled
                0x00000000817442a0        0x4 common/built-in.o
 .bss.ctrlc_was_pressed
                0x00000000817442a4        0x4 common/built-in.o
 .bss.current_mallinfo
                0x00000000817442a8       0x28 common/built-in.o
 .bss.max_sbrked_mem
                0x00000000817442d0        0x4 common/built-in.o
 .bss.max_total_mem
                0x00000000817442d4        0x4 common/built-in.o
 .bss.mem_malloc_brk
                0x00000000817442d8        0x4 common/built-in.o
                0x00000000817442d8                mem_malloc_brk
 .bss.mem_malloc_end
                0x00000000817442dc        0x4 common/built-in.o
                0x00000000817442dc                mem_malloc_end
 .bss.mem_malloc_start
                0x00000000817442e0        0x4 common/built-in.o
                0x00000000817442e0                mem_malloc_start
 .bss.top_pad   0x00000000817442e4        0x4 common/built-in.o
 .bss.devs      0x00000000817442e8       0x4c common/built-in.o
 .bss.stdio_devices
                0x0000000081744334        0xc common/built-in.o
                0x0000000081744334                stdio_devices
 .bss.tmp_buf   0x0000000081744340      0x401 common/built-in.o
 .bss.tmp_buf.7155
                0x0000000081744741      0x200 common/built-in.o
 *fill*         0x0000000081744941        0x3 
 .bss.xyz       0x0000000081744944      0x434 common/built-in.o
 *fill*         0x0000000081744d78        0x8 
 .bss.tmpbuf    0x0000000081744d80      0x800 disk/built-in.o
 .bss.name.8392
                0x0000000081745580       0x25 disk/built-in.o
 *fill*         0x00000000817455a5        0x3 
 .bss.initialized.9830
                0x00000000817455a8        0x4 drivers/built-in.o
 .bss.mmc_devices
                0x00000000817455ac        0x8 drivers/built-in.o
 .bss.mmc_host  0x00000000817455b4       0xf0 drivers/built-in.o
                0x00000000817455b4                mmc_host
 .bss.asynch_allowed
                0x00000000817456a4        0x1 drivers/usb/host/built-in.o
 *fill*         0x00000000817456a5        0x3 
 .bss.callback_list
                0x00000000817456a8        0x4 env/built-in.o
 .bss.flags_list
                0x00000000817456ac        0x4 env/built-in.o
 .bss.fs_dev_desc
                0x00000000817456b0        0x4 fs/built-in.o
 .bss.fs_dev_part
                0x00000000817456b4        0x4 fs/built-in.o
 .bss.fs_partition
                0x00000000817456b8       0x78 fs/built-in.o
 .bss.fs_type   0x0000000081745730        0x4 fs/built-in.o
 *fill*         0x0000000081745734        0x4 
 .bss.ext_fs    0x0000000081745738       0x48 fs/built-in.o
                0x0000000081745738                ext_fs
 .bss.ext4fs_file
                0x0000000081745780        0x4 fs/built-in.o
                0x0000000081745780                ext4fs_file
 .bss.ext4fs_indir1_block
                0x0000000081745784        0x4 fs/built-in.o
                0x0000000081745784                ext4fs_indir1_block
 .bss.ext4fs_indir1_size
                0x0000000081745788        0x4 fs/built-in.o
                0x0000000081745788                ext4fs_indir1_size
 .bss.ext4fs_indir2_block
                0x000000008174578c        0x4 fs/built-in.o
                0x000000008174578c                ext4fs_indir2_block
 .bss.ext4fs_indir2_size
                0x0000000081745790        0x4 fs/built-in.o
                0x0000000081745790                ext4fs_indir2_size
 .bss.ext4fs_indir3_block
                0x0000000081745794        0x4 fs/built-in.o
                0x0000000081745794                ext4fs_indir3_block
 .bss.ext4fs_indir3_size
                0x0000000081745798        0x4 fs/built-in.o
                0x0000000081745798                ext4fs_indir3_size
 .bss.ext4fs_root
                0x000000008174579c        0x4 fs/built-in.o
                0x000000008174579c                ext4fs_root
 .bss.symlinknest
                0x00000000817457a0        0x4 fs/built-in.o
 .bss.part_info
                0x00000000817457a4        0x4 fs/built-in.o
 .bss.part_offset
                0x00000000817457a8        0x4 fs/built-in.o
                0x00000000817457a8                part_offset
 .bss.cur_dev   0x00000000817457ac        0x4 fs/built-in.o
 .bss.cur_part_info
                0x00000000817457b0       0x78 fs/built-in.o
 .bss.dir_curclust
                0x0000000081745828        0x4 fs/built-in.o
 *fill*         0x000000008174582c       0x14 
 .bss.do_fat_read_at_block
                0x0000000081745840    0x10000 fs/built-in.o
                0x0000000081745840                do_fat_read_at_block
 .bss.empty_dentptr
                0x0000000081755840        0x4 fs/built-in.o
 *fill*         0x0000000081755844       0x1c 
 .bss.get_contents_vfatname_block
                0x0000000081755860    0x10000 fs/built-in.o
                0x0000000081755860                get_contents_vfatname_block
 .bss.get_dentfromdir_block
                0x0000000081765860    0x10000 fs/built-in.o
                0x0000000081765860                get_dentfromdir_block
 .bss.num_of_fats
                0x0000000081775860        0x1 fs/built-in.o
 *fill*         0x0000000081775861        0x3 
 .bss.total_sector
                0x0000000081775864        0x4 fs/built-in.o
 .bss.app_gd    0x0000000081775868        0x4 lib/built-in.o
 *fill*         0x000000008177586c        0x4 
 .bss.efi_events
                0x0000000081775870      0x280 lib/built-in.o
 .bss.efi_gd    0x0000000081775af0        0x4 lib/built-in.o
 .bss.entry_count
                0x0000000081775af4        0x4 lib/built-in.o
 .bss.mono.9017
                0x0000000081775af8        0x8 lib/built-in.o
 .bss.nesting_level
                0x0000000081775b00        0x4 lib/built-in.o
 .bss.ret.8939  0x0000000081775b04        0x4 lib/built-in.o
 .bss.console_size_queried
                0x0000000081775b08        0x1 lib/built-in.o
 *fill*         0x0000000081775b09        0x3 
 .bss.console_timer_event
                0x0000000081775b0c        0x4 lib/built-in.o
 .bss.rs        0x0000000081775b10        0x4 lib/built-in.o
 .bss.watchdog_timer_event
                0x0000000081775b14        0x4 lib/built-in.o
 .bss.dhcp_ack  0x0000000081775b18        0x4 lib/built-in.o
 .bss.network_timer_event
                0x0000000081775b1c        0x4 lib/built-in.o
 .bss.new_rx_packet
                0x0000000081775b20        0x1 lib/built-in.o
 *fill*         0x0000000081775b21        0x3 
 .bss.new_tx_packet
                0x0000000081775b24        0x4 lib/built-in.o
 .bss.wait_for_packet
                0x0000000081775b28        0x4 lib/built-in.o
 .bss.errno     0x0000000081775b2c        0x4 lib/built-in.o
                0x0000000081775b2c                errno
 .bss.local.7443
                0x0000000081775b30       0x16 lib/built-in.o
 *fill*         0x0000000081775b46        0x2 
 .bss.arp_tx_packet
                0x0000000081775b48        0x4 net/built-in.o
 .bss.arp_tx_packet_buf
                0x0000000081775b4c      0x620 net/built-in.o
 .bss.arp_wait_packet_ethaddr
                0x000000008177616c        0x4 net/built-in.o
                0x000000008177616c                arp_wait_packet_ethaddr
 .bss.arp_wait_timer_start
                0x0000000081776170        0x4 net/built-in.o
                0x0000000081776170                arp_wait_timer_start
 .bss.arp_wait_try
                0x0000000081776174        0x4 net/built-in.o
                0x0000000081776174                arp_wait_try
 .bss.arp_wait_tx_packet_size
                0x0000000081776178        0x4 net/built-in.o
                0x0000000081776178                arp_wait_tx_packet_size
 .bss.net_arp_wait_packet_ip
                0x000000008177617c        0x4 net/built-in.o
                0x000000008177617c                net_arp_wait_packet_ip
 .bss.net_arp_wait_reply_ip
                0x0000000081776180        0x4 net/built-in.o
 .bss.bootp_ids
                0x0000000081776184       0x10 net/built-in.o
                0x0000000081776184                bootp_ids
 .bss.bootp_num_ids
                0x0000000081776194        0x4 net/built-in.o
                0x0000000081776194                bootp_num_ids
 .bss.bootp_start
                0x0000000081776198        0x4 net/built-in.o
                0x0000000081776198                bootp_start
 .bss.bootp_timeout
                0x000000008177619c        0x4 net/built-in.o
                0x000000008177619c                bootp_timeout
 .bss.bootp_try
                0x00000000817761a0        0x4 net/built-in.o
                0x00000000817761a0                bootp_try
 .bss.dhcp_leasetime
                0x00000000817761a4        0x4 net/built-in.o
 .bss.dhcp_option_overload
                0x00000000817761a8        0x1 net/built-in.o
 *fill*         0x00000000817761a9        0x3 
 .bss.dhcp_server_ip
                0x00000000817761ac        0x4 net/built-in.o
 .bss.dhcp_state
                0x00000000817761b0        0x4 net/built-in.o
 .bss.net_hostname
                0x00000000817761b4       0x20 net/built-in.o
                0x00000000817761b4                net_hostname
 .bss.net_nis_domain
                0x00000000817761d4       0x20 net/built-in.o
                0x00000000817761d4                net_nis_domain
 .bss.net_root_path
                0x00000000817761f4       0x40 net/built-in.o
                0x00000000817761f4                net_root_path
 .bss.time_taken_max
                0x0000000081776234        0x4 net/built-in.o
 .bss.eth_errno
                0x0000000081776238        0x4 net/built-in.o
 .bss.act.9580  0x000000008177623c        0x4 net/built-in.o
 .bss.env_changed_id.9581
                0x0000000081776240        0x4 net/built-in.o
 .bss.first_failed.9575
                0x0000000081776244        0x4 net/built-in.o
 .bss.arp_packet_handler
                0x0000000081776248        0x4 net/built-in.o
 .bss.net_boot_file_expected_size_in_blocks
                0x000000008177624c        0x4 net/built-in.o
                0x000000008177624c                net_boot_file_expected_size_in_blocks
 .bss.net_boot_file_name
                0x0000000081776250      0x400 net/built-in.o
                0x0000000081776250                net_boot_file_name
 .bss.net_boot_file_size
                0x0000000081776650        0x4 net/built-in.o
                0x0000000081776650                net_boot_file_size
 .bss.net_busy_flag
                0x0000000081776654        0x4 net/built-in.o
                0x0000000081776654                net_busy_flag
 .bss.net_dev_exists
                0x0000000081776658        0x4 net/built-in.o
 .bss.net_dns_server
                0x000000008177665c        0x4 net/built-in.o
                0x000000008177665c                net_dns_server
 .bss.net_ethaddr
                0x0000000081776660        0x6 net/built-in.o
                0x0000000081776660                net_ethaddr
 *fill*         0x0000000081776666        0x2 
 .bss.net_gateway
                0x0000000081776668        0x4 net/built-in.o
                0x0000000081776668                net_gateway
 .bss.net_ip    0x000000008177666c        0x4 net/built-in.o
                0x000000008177666c                net_ip
 .bss.net_ip_id
                0x0000000081776670        0x4 net/built-in.o
 .bss.net_netmask
                0x0000000081776674        0x4 net/built-in.o
                0x0000000081776674                net_netmask
 .bss.net_null_ethaddr
                0x0000000081776678        0x6 net/built-in.o
                0x0000000081776678                net_null_ethaddr
 .bss.net_pkt_buf
                0x000000008177667e     0x1e20 net/built-in.o
 *fill*         0x000000008177849e        0x2 
 .bss.net_restart_wrap
                0x00000000817784a0        0x4 net/built-in.o
                0x00000000817784a0                net_restart_wrap
 .bss.net_restarted
                0x00000000817784a4        0x4 net/built-in.o
 .bss.net_rx_packet
                0x00000000817784a8        0x4 net/built-in.o
                0x00000000817784a8                net_rx_packet
 .bss.net_rx_packet_len
                0x00000000817784ac        0x4 net/built-in.o
                0x00000000817784ac                net_rx_packet_len
 .bss.net_rx_packets
                0x00000000817784b0       0x10 net/built-in.o
                0x00000000817784b0                net_rx_packets
 .bss.net_server_ethaddr
                0x00000000817784c0        0x6 net/built-in.o
                0x00000000817784c0                net_server_ethaddr
 *fill*         0x00000000817784c6        0x2 
 .bss.net_server_ip
                0x00000000817784c8        0x4 net/built-in.o
                0x00000000817784c8                net_server_ip
 .bss.net_state
                0x00000000817784cc        0x4 net/built-in.o
                0x00000000817784cc                net_state
 .bss.net_try_count
                0x00000000817784d0        0x4 net/built-in.o
 .bss.net_tx_packet
                0x00000000817784d4        0x4 net/built-in.o
                0x00000000817784d4                net_tx_packet
 .bss.push_packet
                0x00000000817784d8        0x4 net/built-in.o
                0x00000000817784d8                push_packet
 .bss.time_delta
                0x00000000817784dc        0x4 net/built-in.o
 .bss.time_handler
                0x00000000817784e0        0x4 net/built-in.o
 .bss.time_start
                0x00000000817784e4        0x8 net/built-in.o
 .bss.udp_packet_handler
                0x00000000817784ec        0x4 net/built-in.o
 .bss.dirfh     0x00000000817784f0       0x20 net/built-in.o
 .bss.filefh    0x0000000081778510       0x40 net/built-in.o
 .bss.filefh3_length
                0x0000000081778550        0x4 net/built-in.o
 .bss.fs_mounted
                0x0000000081778554        0x4 net/built-in.o
 .bss.nfs_download_state
                0x0000000081778558        0x4 net/built-in.o
 .bss.nfs_filename
                0x000000008177855c        0x4 net/built-in.o
 .bss.nfs_len   0x0000000081778560        0x4 net/built-in.o
 .bss.nfs_our_port
                0x0000000081778564        0x4 net/built-in.o
 .bss.nfs_path  0x0000000081778568        0x4 net/built-in.o
 .bss.nfs_path_buff
                0x000000008177856c      0x800 net/built-in.o
 .bss.nfs_server_ip
                0x0000000081778d6c        0x4 net/built-in.o
 .bss.nfs_server_mount_port
                0x0000000081778d70        0x4 net/built-in.o
 .bss.nfs_server_port
                0x0000000081778d74        0x4 net/built-in.o
 .bss.nfs_state
                0x0000000081778d78        0x4 net/built-in.o
 .bss.nfs_timeout_count
                0x0000000081778d7c        0x4 net/built-in.o
 .bss.rpc_id    0x0000000081778d80        0x4 net/built-in.o
 .bss.net_ping_ip
                0x0000000081778d84        0x4 net/built-in.o
                0x0000000081778d84                net_ping_ip
 .bss.ping_seq_number
                0x0000000081778d88        0x2 net/built-in.o
 .bss.default_filename
                0x0000000081778d8a        0xd net/built-in.o
 *fill*         0x0000000081778d97        0x1 
 .bss.tftp_block_wrap
                0x0000000081778d98        0x4 net/built-in.o
 .bss.tftp_block_wrap_offset
                0x0000000081778d9c        0x4 net/built-in.o
 .bss.tftp_cur_block
                0x0000000081778da0        0x4 net/built-in.o
 .bss.tftp_filename
                0x0000000081778da4       0x80 net/built-in.o
 .bss.tftp_our_port
                0x0000000081778e24        0x4 net/built-in.o
 .bss.tftp_prev_block
                0x0000000081778e28        0x4 net/built-in.o
 .bss.tftp_remote_ip
                0x0000000081778e2c        0x4 net/built-in.o
 .bss.tftp_remote_port
                0x0000000081778e30        0x4 net/built-in.o
 .bss.tftp_state
                0x0000000081778e34        0x4 net/built-in.o
 .bss.timeout_count
                0x0000000081778e38        0x4 net/built-in.o
                0x0000000081778e3c                . = ALIGN (0x4)
                0x0000000081778e3c                __bss_limit = .

.bss_end        0x0000000081778e3c        0x0
 *(.__bss_end)
 .__bss_end     0x0000000081778e3c        0x0 arch/arm/lib/built-in.o
                0x0000000081778e3c                __bss_end

.dynsym         0x00000000817461d0       0x30
 *(.dynsym)
 .dynsym        0x00000000817461d0       0x30 arch/arm/cpu/arm926ejs/start.o

.dynbss         0x0000000081746200        0x0
 *(.dynbss)
 .dynbss        0x0000000081746200        0x0 arch/arm/cpu/arm926ejs/start.o

.dynstr         0x0000000081746200        0x1
 *(.dynstr*)
 .dynstr        0x0000000081746200        0x1 arch/arm/cpu/arm926ejs/start.o

.dynamic        0x0000000081746204       0x88
 *(.dynamic*)
 .dynamic       0x0000000081746204       0x88 arch/arm/cpu/arm926ejs/start.o
                0x0000000081746204                _DYNAMIC

.plt            0x000000008174628c        0x0
 *(.plt*)
 .plt           0x000000008174628c        0x0 arch/arm/cpu/arm926ejs/start.o

.interp
 *(.interp*)

.gnu.hash
 *(.gnu.hash)

.gnu            0x000000008174628c        0x0
 *(.gnu*)
 .gnu.version_d
                0x000000008174628c        0x0 arch/arm/cpu/arm926ejs/start.o
 .gnu.version   0x000000008174628c        0x0 arch/arm/cpu/arm926ejs/start.o
 .gnu.version_r
                0x000000008174628c        0x0 arch/arm/cpu/arm926ejs/start.o

.ARM.exidx
 *(.ARM.exidx*)

.gnu.linkonce.armexidx
 *(.gnu.linkonce.armexidx.*)
LOAD arch/arm/cpu/arm926ejs/start.o
START GROUP
LOAD arch/arm/cpu/built-in.o
LOAD arch/arm/cpu/arm926ejs/built-in.o
LOAD arch/arm/lib/built-in.o
LOAD arch/arm/mach-sunxi/built-in.o
LOAD board/sunxi/built-in.o
LOAD cmd/built-in.o
LOAD common/built-in.o
LOAD disk/built-in.o
LOAD drivers/built-in.o
LOAD drivers/dma/built-in.o
LOAD drivers/gpio/built-in.o
LOAD drivers/i2c/built-in.o
LOAD drivers/mtd/built-in.o
LOAD drivers/mtd/onenand/built-in.o
LOAD drivers/mtd/spi/built-in.o
LOAD drivers/net/built-in.o
LOAD drivers/net/phy/built-in.o
LOAD drivers/pci/built-in.o
LOAD drivers/power/built-in.o
LOAD drivers/power/battery/built-in.o
LOAD drivers/power/domain/built-in.o
LOAD drivers/power/fuel_gauge/built-in.o
LOAD drivers/power/mfd/built-in.o
LOAD drivers/power/pmic/built-in.o
LOAD drivers/power/regulator/built-in.o
LOAD drivers/serial/built-in.o
LOAD drivers/spi/built-in.o
LOAD drivers/usb/common/built-in.o
LOAD drivers/usb/dwc3/built-in.o
LOAD drivers/usb/emul/built-in.o
LOAD drivers/usb/eth/built-in.o
LOAD drivers/usb/gadget/built-in.o
LOAD drivers/usb/gadget/udc/built-in.o
LOAD drivers/usb/host/built-in.o
LOAD drivers/usb/musb-new/built-in.o
LOAD drivers/usb/musb/built-in.o
LOAD drivers/usb/phy/built-in.o
LOAD drivers/usb/ulpi/built-in.o
LOAD env/built-in.o
LOAD fs/built-in.o
LOAD lib/built-in.o
LOAD net/built-in.o
LOAD test/built-in.o
LOAD test/dm/built-in.o
END GROUP
LOAD arch/arm/lib/eabi_compat.o
LOAD arch/arm/lib/lib.a
OUTPUT(u-boot elf32-littlearm)

.ARM.attributes
                0x0000000000000000       0x27
 .ARM.attributes
                0x0000000000000000       0x1b arch/arm/cpu/arm926ejs/start.o
 .ARM.attributes
                0x000000000000001b       0x29 arch/arm/cpu/arm926ejs/built-in.o
 .ARM.attributes
                0x0000000000000044       0x27 arch/arm/lib/built-in.o
 .ARM.attributes
                0x000000000000006b       0x2b arch/arm/mach-sunxi/built-in.o
 .ARM.attributes
                0x0000000000000096       0x2b board/sunxi/built-in.o
 .ARM.attributes
                0x00000000000000c1       0x2b cmd/built-in.o
 .ARM.attributes
                0x00000000000000ec       0x2b common/built-in.o
 .ARM.attributes
                0x0000000000000117       0x2b disk/built-in.o
 .ARM.attributes
                0x0000000000000142       0x2b drivers/built-in.o
 .ARM.attributes
                0x000000000000016d       0x2b drivers/gpio/built-in.o
 .ARM.attributes
                0x0000000000000198       0x2b drivers/serial/built-in.o
 .ARM.attributes
                0x00000000000001c3       0x2b drivers/spi/built-in.o
 .ARM.attributes
                0x00000000000001ee       0x2b drivers/usb/host/built-in.o
 .ARM.attributes
                0x0000000000000219       0x2b env/built-in.o
 .ARM.attributes
                0x0000000000000244       0x2b fs/built-in.o
 .ARM.attributes
                0x000000000000026f       0x2b lib/built-in.o
 .ARM.attributes
                0x000000000000029a       0x2b net/built-in.o
 .ARM.attributes
                0x00000000000002c5       0x2b test/dm/built-in.o
 .ARM.attributes
                0x00000000000002f0       0x1b arch/arm/lib/lib.a(ashldi3.o)
 .ARM.attributes
                0x000000000000030b       0x1b arch/arm/lib/lib.a(lib1funcs.o)
 .ARM.attributes
                0x0000000000000326       0x1b arch/arm/lib/lib.a(lshrdi3.o)
 .ARM.attributes
                0x0000000000000341       0x1b arch/arm/lib/lib.a(muldi3.o)
 .ARM.attributes
                0x000000000000035c       0x2b arch/arm/lib/lib.a(div0.o)

.comment        0x0000000000000000       0x74
 .comment       0x0000000000000000       0x74 arch/arm/cpu/arm926ejs/built-in.o
                                        0x15f (size before relaxing)
 .comment       0x0000000000000074      0x492 arch/arm/lib/built-in.o
 .comment       0x0000000000000074      0x333 arch/arm/mach-sunxi/built-in.o
 .comment       0x0000000000000074       0x75 board/sunxi/built-in.o
 .comment       0x0000000000000074     0x1074 cmd/built-in.o
 .comment       0x0000000000000074      0xe2b common/built-in.o
 .comment       0x0000000000000074      0x1d4 disk/built-in.o
 .comment       0x0000000000000074      0xa0e drivers/built-in.o
 .comment       0x0000000000000074       0xea drivers/gpio/built-in.o
 .comment       0x0000000000000074       0xea drivers/serial/built-in.o
 .comment       0x0000000000000074       0xea drivers/spi/built-in.o
 .comment       0x0000000000000074       0x75 drivers/usb/host/built-in.o
 .comment       0x0000000000000074      0x2be env/built-in.o
 .comment       0x0000000000000074      0x2be fs/built-in.o
 .comment       0x0000000000000074     0x1af7 lib/built-in.o
 .comment       0x0000000000000074      0x41d net/built-in.o
 .comment       0x0000000000000074       0x75 test/dm/built-in.o
 .comment       0x0000000000000074       0x75 arch/arm/lib/lib.a(div0.o)

.note.GNU-stack
                0x0000000000000000        0x0
 .note.GNU-stack
                0x0000000000000000        0x0 arch/arm/cpu/arm926ejs/built-in.o
 .note.GNU-stack
                0x0000000000000000        0x0 arch/arm/lib/built-in.o
 .note.GNU-stack
                0x0000000000000000        0x0 arch/arm/mach-sunxi/built-in.o
 .note.GNU-stack
                0x0000000000000000        0x0 board/sunxi/built-in.o
 .note.GNU-stack
                0x0000000000000000        0x0 cmd/built-in.o
 .note.GNU-stack
                0x0000000000000000        0x0 common/built-in.o
 .note.GNU-stack
                0x0000000000000000        0x0 disk/built-in.o
 .note.GNU-stack
                0x0000000000000000        0x0 drivers/built-in.o
 .note.GNU-stack
                0x0000000000000000        0x0 drivers/gpio/built-in.o
 .note.GNU-stack
                0x0000000000000000        0x0 drivers/serial/built-in.o
 .note.GNU-stack
                0x0000000000000000        0x0 drivers/spi/built-in.o
 .note.GNU-stack
                0x0000000000000000        0x0 drivers/usb/host/built-in.o
 .note.GNU-stack
                0x0000000000000000        0x0 env/built-in.o
 .note.GNU-stack
                0x0000000000000000        0x0 fs/built-in.o
 .note.GNU-stack
                0x0000000000000000        0x0 lib/built-in.o
 .note.GNU-stack
                0x0000000000000000        0x0 net/built-in.o
 .note.GNU-stack
                0x0000000000000000        0x0 test/dm/built-in.o
 .note.GNU-stack
                0x0000000000000000        0x0 arch/arm/lib/lib.a(div0.o)

.debug_line     0x0000000000000000    0x2cd08
 .debug_line    0x0000000000000000       0x6a arch/arm/cpu/arm926ejs/start.o
 .debug_line    0x000000000000006a      0x587 arch/arm/cpu/arm926ejs/built-in.o
 .debug_line    0x00000000000005f1     0x1650 arch/arm/lib/built-in.o
 .debug_line    0x0000000000001c41      0xf75 arch/arm/mach-sunxi/built-in.o
 .debug_line    0x0000000000002bb6      0x467 board/sunxi/built-in.o
 .debug_line    0x000000000000301d     0x67ad cmd/built-in.o
 .debug_line    0x00000000000097ca     0x8e2b common/built-in.o
 .debug_line    0x00000000000125f5     0x152c disk/built-in.o
 .debug_line    0x0000000000013b21     0x5116 drivers/built-in.o
 .debug_line    0x0000000000018c37      0xc37 drivers/gpio/built-in.o
 .debug_line    0x000000000001986e      0x8e8 drivers/serial/built-in.o
 .debug_line    0x000000000001a156      0x99b drivers/spi/built-in.o
 .debug_line    0x000000000001aaf1      0x75d drivers/usb/host/built-in.o
 .debug_line    0x000000000001b24e      0xf42 env/built-in.o
 .debug_line    0x000000000001c190     0x21a6 fs/built-in.o
 .debug_line    0x000000000001e336     0xb930 lib/built-in.o
 .debug_line    0x0000000000029c66     0x2bd8 net/built-in.o
 .debug_line    0x000000000002c83e      0x246 test/dm/built-in.o
 .debug_line    0x000000000002ca84       0x4c arch/arm/lib/lib.a(ashldi3.o)
 .debug_line    0x000000000002cad0      0x153 arch/arm/lib/lib.a(lib1funcs.o)
 .debug_line    0x000000000002cc23       0x4c arch/arm/lib/lib.a(lshrdi3.o)
 .debug_line    0x000000000002cc6f       0x53 arch/arm/lib/lib.a(muldi3.o)
 .debug_line    0x000000000002ccc2       0x46 arch/arm/lib/lib.a(div0.o)

.debug_info     0x0000000000000000   0x14b45c
 .debug_info    0x0000000000000000       0x88 arch/arm/cpu/arm926ejs/start.o
 .debug_info    0x0000000000000088     0x25a3 arch/arm/cpu/arm926ejs/built-in.o
 .debug_info    0x000000000000262b     0xa55b arch/arm/lib/built-in.o
 .debug_info    0x000000000000cb86     0x7244 arch/arm/mach-sunxi/built-in.o
 .debug_info    0x0000000000013dca     0x230d board/sunxi/built-in.o
 .debug_info    0x00000000000160d7    0x3673d cmd/built-in.o
 .debug_info    0x000000000004c814    0x3dcb8 common/built-in.o
 .debug_info    0x000000000008a4cc     0x902c disk/built-in.o
 .debug_info    0x00000000000934f8    0x26d2c drivers/built-in.o
 .debug_info    0x00000000000ba224     0x520e drivers/gpio/built-in.o
 .debug_info    0x00000000000bf432     0x463d drivers/serial/built-in.o
 .debug_info    0x00000000000c3a6f     0x51e2 drivers/spi/built-in.o
 .debug_info    0x00000000000c8c51     0x3583 drivers/usb/host/built-in.o
 .debug_info    0x00000000000cc1d4     0x83c9 env/built-in.o
 .debug_info    0x00000000000d459d     0xebb4 fs/built-in.o
 .debug_info    0x00000000000e3151    0x53ca6 lib/built-in.o
 .debug_info    0x0000000000136df7    0x12e27 net/built-in.o
 .debug_info    0x0000000000149c1e     0x15ea test/dm/built-in.o
 .debug_info    0x000000000014b208       0x80 arch/arm/lib/lib.a(ashldi3.o)
 .debug_info    0x000000000014b288       0x7e arch/arm/lib/lib.a(lib1funcs.o)
 .debug_info    0x000000000014b306       0x80 arch/arm/lib/lib.a(lshrdi3.o)
 .debug_info    0x000000000014b386       0x7f arch/arm/lib/lib.a(muldi3.o)
 .debug_info    0x000000000014b405       0x57 arch/arm/lib/lib.a(div0.o)

.debug_abbrev   0x0000000000000000    0x2c7fe
 .debug_abbrev  0x0000000000000000       0x14 arch/arm/cpu/arm926ejs/start.o
 .debug_abbrev  0x0000000000000014      0x7f3 arch/arm/cpu/arm926ejs/built-in.o
 .debug_abbrev  0x0000000000000807     0x197f arch/arm/lib/built-in.o
 .debug_abbrev  0x0000000000002186     0x1390 arch/arm/mach-sunxi/built-in.o
 .debug_abbrev  0x0000000000003516      0x4b6 board/sunxi/built-in.o
 .debug_abbrev  0x00000000000039cc     0x7991 cmd/built-in.o
 .debug_abbrev  0x000000000000b35d     0x7eca common/built-in.o
 .debug_abbrev  0x0000000000013227     0x13b5 disk/built-in.o
 .debug_abbrev  0x00000000000145dc     0x533f drivers/built-in.o
 .debug_abbrev  0x000000000001991b      0xa23 drivers/gpio/built-in.o
 .debug_abbrev  0x000000000001a33e      0xa23 drivers/serial/built-in.o
 .debug_abbrev  0x000000000001ad61      0x99e drivers/spi/built-in.o
 .debug_abbrev  0x000000000001b6ff      0x5b6 drivers/usb/host/built-in.o
 .debug_abbrev  0x000000000001bcb5     0x1642 env/built-in.o
 .debug_abbrev  0x000000000001d2f7     0x19e0 fs/built-in.o
 .debug_abbrev  0x000000000001ecd7     0xb165 lib/built-in.o
 .debug_abbrev  0x0000000000029e3c     0x2636 net/built-in.o
 .debug_abbrev  0x000000000002c472      0x2e3 test/dm/built-in.o
 .debug_abbrev  0x000000000002c755       0x14 arch/arm/lib/lib.a(ashldi3.o)
 .debug_abbrev  0x000000000002c769       0x12 arch/arm/lib/lib.a(lib1funcs.o)
 .debug_abbrev  0x000000000002c77b       0x14 arch/arm/lib/lib.a(lshrdi3.o)
 .debug_abbrev  0x000000000002c78f       0x14 arch/arm/lib/lib.a(muldi3.o)
 .debug_abbrev  0x000000000002c7a3       0x5b arch/arm/lib/lib.a(div0.o)

.debug_aranges  0x0000000000000000     0x4bf0
 .debug_aranges
                0x0000000000000000       0x20 arch/arm/cpu/arm926ejs/start.o
 .debug_aranges
                0x0000000000000020       0xd0 arch/arm/cpu/arm926ejs/built-in.o
 .debug_aranges
                0x00000000000000f0      0x318 arch/arm/lib/built-in.o
 .debug_aranges
                0x0000000000000408      0x1c0 arch/arm/mach-sunxi/built-in.o
 .debug_aranges
                0x00000000000005c8       0x60 board/sunxi/built-in.o
 .debug_aranges
                0x0000000000000628      0x8d0 cmd/built-in.o
 .debug_aranges
                0x0000000000000ef8      0xe60 common/built-in.o
 .debug_aranges
                0x0000000000001d58      0x1a8 disk/built-in.o
 .debug_aranges
                0x0000000000001f00      0x8c0 drivers/built-in.o
 .debug_aranges
                0x00000000000027c0      0x1d0 drivers/gpio/built-in.o
 .debug_aranges
                0x0000000000002990      0x138 drivers/serial/built-in.o
 .debug_aranges
                0x0000000000002ac8      0x108 drivers/spi/built-in.o
 .debug_aranges
                0x0000000000002bd0       0xd0 drivers/usb/host/built-in.o
 .debug_aranges
                0x0000000000002ca0      0x1a0 env/built-in.o
 .debug_aranges
                0x0000000000002e40      0x340 fs/built-in.o
 .debug_aranges
                0x0000000000003180     0x1528 lib/built-in.o
 .debug_aranges
                0x00000000000046a8      0x428 net/built-in.o
 .debug_aranges
                0x0000000000004ad0       0x38 test/dm/built-in.o
 .debug_aranges
                0x0000000000004b08       0x20 arch/arm/lib/lib.a(ashldi3.o)
 .debug_aranges
                0x0000000000004b28       0x68 arch/arm/lib/lib.a(lib1funcs.o)
 .debug_aranges
                0x0000000000004b90       0x20 arch/arm/lib/lib.a(lshrdi3.o)
 .debug_aranges
                0x0000000000004bb0       0x20 arch/arm/lib/lib.a(muldi3.o)
 .debug_aranges
                0x0000000000004bd0       0x20 arch/arm/lib/lib.a(div0.o)

.debug_frame    0x0000000000000000     0xdd94
 .debug_frame   0x0000000000000000      0x164 arch/arm/cpu/arm926ejs/built-in.o
 .debug_frame   0x0000000000000164      0x4d8 arch/arm/lib/built-in.o
 .debug_frame   0x000000000000063c      0x408 arch/arm/mach-sunxi/built-in.o
 .debug_frame   0x0000000000000a44      0x114 board/sunxi/built-in.o
 .debug_frame   0x0000000000000b58     0x174c cmd/built-in.o
 .debug_frame   0x00000000000022a4     0x2ddc common/built-in.o
 .debug_frame   0x0000000000005080      0x5dc disk/built-in.o
 .debug_frame   0x000000000000565c     0x1ac0 drivers/built-in.o
 .debug_frame   0x000000000000711c      0x6d4 drivers/gpio/built-in.o
 .debug_frame   0x00000000000077f0      0x3f0 drivers/serial/built-in.o
 .debug_frame   0x0000000000007be0      0x37c drivers/spi/built-in.o
 .debug_frame   0x0000000000007f5c      0x2f8 drivers/usb/host/built-in.o
 .debug_frame   0x0000000000008254      0x45c env/built-in.o
 .debug_frame   0x00000000000086b0      0xaa8 fs/built-in.o
 .debug_frame   0x0000000000009158     0x3f08 lib/built-in.o
 .debug_frame   0x000000000000d060      0xc98 net/built-in.o
 .debug_frame   0x000000000000dcf8       0x74 test/dm/built-in.o
 .debug_frame   0x000000000000dd6c       0x28 arch/arm/lib/lib.a(div0.o)

.debug_str      0x0000000000000000    0x17ad5
 .debug_str     0x0000000000000000     0x1127 arch/arm/cpu/arm926ejs/built-in.o
                                       0x22a2 (size before relaxing)
 .debug_str     0x0000000000001127     0x1b21 arch/arm/lib/built-in.o
                                       0x952f (size before relaxing)
 .debug_str     0x0000000000002c48      0xf0a arch/arm/mach-sunxi/built-in.o
                                       0x63e7 (size before relaxing)
 .debug_str     0x0000000000003b52      0x644 board/sunxi/built-in.o
                                       0x1b21 (size before relaxing)
 .debug_str     0x0000000000004196     0x4352 cmd/built-in.o
                                      0x290c9 (size before relaxing)
 .debug_str     0x00000000000084e8     0x41bb common/built-in.o
                                      0x2b89e (size before relaxing)
 .debug_str     0x000000000000c6a3      0x9ca disk/built-in.o
                                       0x53b2 (size before relaxing)
 .debug_str     0x000000000000d06d     0x218d drivers/built-in.o
                                      0x1b90c (size before relaxing)
 .debug_str     0x000000000000f1fa      0x552 drivers/gpio/built-in.o
                                       0x3084 (size before relaxing)
 .debug_str     0x000000000000f74c      0x4ea drivers/serial/built-in.o
                                       0x2ed6 (size before relaxing)
 .debug_str     0x000000000000fc36      0x4ba drivers/spi/built-in.o
                                       0x35a4 (size before relaxing)
 .debug_str     0x00000000000100f0      0x29d drivers/usb/host/built-in.o
                                       0x1e33 (size before relaxing)
 .debug_str     0x000000000001038d      0x65f env/built-in.o
                                       0x6f54 (size before relaxing)
 .debug_str     0x00000000000109ec      0xfe5 fs/built-in.o
                                       0x853a (size before relaxing)
 .debug_str     0x00000000000119d1     0x4ce9 lib/built-in.o
                                      0x35edf (size before relaxing)
 .debug_str     0x00000000000166ba     0x1387 net/built-in.o
                                       0xe412 (size before relaxing)
 .debug_str     0x0000000000017a41       0x79 test/dm/built-in.o
                                       0x13a0 (size before relaxing)
 .debug_str     0x0000000000017aba       0x1b arch/arm/lib/lib.a(div0.o)
                                        0x1f9 (size before relaxing)

.debug_loc      0x0000000000000000    0x6db4e
 .debug_loc     0x0000000000000000      0x157 arch/arm/cpu/arm926ejs/built-in.o
 .debug_loc     0x0000000000000157      0xd74 arch/arm/lib/built-in.o
 .debug_loc     0x0000000000000ecb     0x1148 arch/arm/mach-sunxi/built-in.o
 .debug_loc     0x0000000000002013      0x2b5 board/sunxi/built-in.o
 .debug_loc     0x00000000000022c8     0xf095 cmd/built-in.o
 .debug_loc     0x000000000001135d    0x15bd0 common/built-in.o
 .debug_loc     0x0000000000026f2d     0x3aca disk/built-in.o
 .debug_loc     0x000000000002a9f7     0xa8e3 drivers/built-in.o
 .debug_loc     0x00000000000352da     0x22c4 drivers/gpio/built-in.o
 .debug_loc     0x000000000003759e      0xf23 drivers/serial/built-in.o
 .debug_loc     0x00000000000384c1     0x1b63 drivers/spi/built-in.o
 .debug_loc     0x000000000003a024     0x1761 drivers/usb/host/built-in.o
 .debug_loc     0x000000000003b785     0x19f9 env/built-in.o
 .debug_loc     0x000000000003d17e     0x7a72 fs/built-in.o
 .debug_loc     0x0000000000044bf0    0x2364b lib/built-in.o
 .debug_loc     0x000000000006823b     0x56ad net/built-in.o
 .debug_loc     0x000000000006d8e8      0x266 test/dm/built-in.o

.debug_ranges   0x0000000000000000     0xc120
 .debug_ranges  0x0000000000000000      0x138 arch/arm/cpu/arm926ejs/built-in.o
 .debug_ranges  0x0000000000000138      0x338 arch/arm/lib/built-in.o
 .debug_ranges  0x0000000000000470      0x230 arch/arm/mach-sunxi/built-in.o
 .debug_ranges  0x00000000000006a0       0xa8 board/sunxi/built-in.o
 .debug_ranges  0x0000000000000748     0x1728 cmd/built-in.o
 .debug_ranges  0x0000000000001e70     0x29d8 common/built-in.o
 .debug_ranges  0x0000000000004848      0x690 disk/built-in.o
 .debug_ranges  0x0000000000004ed8     0x12d0 drivers/built-in.o
 .debug_ranges  0x00000000000061a8      0x2c0 drivers/gpio/built-in.o
 .debug_ranges  0x0000000000006468      0x270 drivers/serial/built-in.o
 .debug_ranges  0x00000000000066d8      0x2b0 drivers/spi/built-in.o
 .debug_ranges  0x0000000000006988      0x248 drivers/usb/host/built-in.o
 .debug_ranges  0x0000000000006bd0      0x330 env/built-in.o
 .debug_ranges  0x0000000000006f00      0xb20 fs/built-in.o
 .debug_ranges  0x0000000000007a20     0x38b8 lib/built-in.o
 .debug_ranges  0x000000000000b2d8      0xdb0 net/built-in.o
 .debug_ranges  0x000000000000c088       0x28 test/dm/built-in.o
 .debug_ranges  0x000000000000c0b0       0x60 arch/arm/lib/lib.a(lib1funcs.o)
 .debug_ranges  0x000000000000c110       0x10 arch/arm/lib/lib.a(div0.o)
